ASxxxx Assembler V02.00 + NoICE + SDCC mods  (Zilog Z80 / Hitachi HD64180), page 1.
Hexadecimal [16-Bits]



                              1 ;;----------------------------------LICENSE NOTICE-----------------------------------------------------
                              2 ;;Slimy is a challenging videogame made for Amstrad CPC
                              3 ;;    Copyright (C) 2020  Maria del Rosario Fernandez Garcia // David Llopis Romero // Jessica Hernandez Gomez
                              4 ;;
                              5 ;;    This program is free software: you can redistribute it and/or modify
                              6 ;;    it under the terms of the GNU General Public License as published by
                              7 ;;    the Free Software Foundation, either version 3 of the License, or
                              8 ;;    (at your option) any later version.
                              9 ;;
                             10 ;;    This program is distributed in the hope that it will be useful,
                             11 ;;    but WITHOUT ANY WARRANTY; without even the implied warranty of
                             12 ;;    MERCHANTABILITY or FITNESS FOR A PARTICULAR PURPOSE.  See the
                             13 ;;    GNU General Public License for more details.
                             14 ;;
                             15 ;;    You should have received a copy of the GNU General Public License
                             16 ;;    along with this program.  If not, see <https://www.gnu.org/licenses/>.
                             17 ;;------------------------------------------------------------------------------------------------------
ASxxxx Assembler V02.00 + NoICE + SDCC mods  (Zilog Z80 / Hitachi HD64180), page 2.
Hexadecimal [16-Bits]



                             18 .include "cpctelera.h.s"
                              1 ;;-----------------------------LICENSE NOTICE------------------------------------
                              2 ;;  This file is part of CPCtelera: An Amstrad CPC Game Engine
                              3 ;;  Copyright (C) 2017 ronaldo / Fremos / Cheesetea / ByteRealms (@FranGallegoBR)
                              4 ;;
                              5 ;;  This program is free software: you can redistribute it and/or modify
                              6 ;;  it under the terms of the GNU Lesser General Public License as published by
                              7 ;;  the Free Software Foundation, either version 3 of the License, or
                              8 ;;  (at your option) any later version.
                              9 ;;
                             10 ;;  This program is distributed in the hope that it will be useful,
                             11 ;;  but WITHOUT ANY WARRANTY; without even the implied warranty of
                             12 ;;  MERCHANTABILITY or FITNESS FOR A PARTICULAR PURPOSE.  See the
                             13 ;;  GNU Lesser General Public License for more details.
                             14 ;;
                             15 ;;  You should have received a copy of the GNU Lesser General Public License
                             16 ;;  along with this program.  If not, see <http://www.gnu.org/licenses/>.
                             17 ;;-------------------------------------------------------------------------------
                             18 
                             19 ;; All CPCtelera include files
ASxxxx Assembler V02.00 + NoICE + SDCC mods  (Zilog Z80 / Hitachi HD64180), page 3.
Hexadecimal [16-Bits]



                             20 .include "macros/allmacros.h.s"
                              1 ;;-----------------------------LICENSE NOTICE------------------------------------
                              2 ;;  This file is part of CPCtelera: An Amstrad CPC Game Engine
                              3 ;;  Copyright (C) 2017 ronaldo / Fremos / Cheesetea / ByteRealms (@FranGallegoBR)
                              4 ;;
                              5 ;;  This program is free software: you can redistribute it and/or modify
                              6 ;;  it under the terms of the GNU Lesser General Public License as published by
                              7 ;;  the Free Software Foundation, either version 3 of the License, or
                              8 ;;  (at your option) any later version.
                              9 ;;
                             10 ;;  This program is distributed in the hope that it will be useful,
                             11 ;;  but WITHOUT ANY WARRANTY; without even the implied warranty of
                             12 ;;  MERCHANTABILITY or FITNESS FOR A PARTICULAR PURPOSE.  See the
                             13 ;;  GNU Lesser General Public License for more details.
                             14 ;;
                             15 ;;  You should have received a copy of the GNU Lesser General Public License
                             16 ;;  along with this program.  If not, see <http://www.gnu.org/licenses/>.
                             17 ;;-------------------------------------------------------------------------------
                             18 
ASxxxx Assembler V02.00 + NoICE + SDCC mods  (Zilog Z80 / Hitachi HD64180), page 4.
Hexadecimal [16-Bits]



                             19 .include "macros/cpct_maths.h.s"
                              1 ;;-----------------------------LICENSE NOTICE------------------------------------
                              2 ;;  This file is part of CPCtelera: An Amstrad CPC Game Engine 
                              3 ;;  Copyright (C) 2017 ronaldo / Fremos / Cheesetea / ByteRealms (@FranGallegoBR)
                              4 ;;
                              5 ;;  This program is free software: you can redistribute it and/or modify
                              6 ;;  it under the terms of the GNU Lesser General Public License as published by
                              7 ;;  the Free Software Foundation, either version 3 of the License, or
                              8 ;;  (at your option) any later version.
                              9 ;;
                             10 ;;  This program is distributed in the hope that it will be useful,
                             11 ;;  but WITHOUT ANY WARRANTY; without even the implied warranty of
                             12 ;;  MERCHANTABILITY or FITNESS FOR A PARTICULAR PURPOSE.  See the
                             13 ;;  GNU Lesser General Public License for more details.
                             14 ;;
                             15 ;;  You should have received a copy of the GNU Lesser General Public License
                             16 ;;  along with this program.  If not, see <http://www.gnu.org/licenses/>.
                             17 ;;-------------------------------------------------------------------------------
                             18 
                             19 ;;
                             20 ;; File: Math Macros
                             21 ;;
                             22 ;;    Useful assembler macros for doing common math operations
                             23 ;;
                             24 
                             25 ;;;;;;;;;;;;;;;;;;;;;;;;;;;;;;;;;;;;;;;;;;;;;;;;;;;;;;;;;;;;;;;;;;;;;;;;;;;;;;;;;;;;;;;;;
                             26 ;; Macro: add_REGPAIR_a 
                             27 ;;
                             28 ;;    Performs the operation REGPAIR = REGPAIR + A. REGPAIR is any given pair of 8-bit registers.
                             29 ;;
                             30 ;; ASM Definition:
                             31 ;;    .macro <add_REGPAIR_a> RH, RL
                             32 ;;
                             33 ;; Parameters:
                             34 ;;    RH    - Register 1 of the REGPAIR. Holds higher-byte value
                             35 ;;    RL    - Register 2 of the REGPAIR. Holds lower-byte value
                             36 ;; 
                             37 ;; Input Registers: 
                             38 ;;    RH:RL - 16-value used as left-operand and final storage for the sum
                             39 ;;    A     - Second sum operand
                             40 ;;
                             41 ;; Return Value:
                             42 ;;    RH:RL - Holds the sum of RH:RL + A
                             43 ;;
                             44 ;; Details:
                             45 ;;    This macro performs the sum of RH:RL + A and stores it directly on RH:RL.
                             46 ;; It uses only RH:RL and A to perform the operation.
                             47 ;;
                             48 ;; Modified Registers: 
                             49 ;;    A, RH, RL
                             50 ;;
                             51 ;; Required memory:
                             52 ;;    5 bytes
                             53 ;;
                             54 ;; Time Measures:
ASxxxx Assembler V02.00 + NoICE + SDCC mods  (Zilog Z80 / Hitachi HD64180), page 5.
Hexadecimal [16-Bits]



                             55 ;; (start code)
                             56 ;;  Case | microSecs(us) | CPU Cycles
                             57 ;; ------------------------------------
                             58 ;;  Any  |       5       |     20
                             59 ;; ------------------------------------
                             60 ;; (end code)
                             61 ;;;;;;;;;;;;;;;;;;;;;;;;;;;;;;;;;;;;;;;;;;;;;;;;;;;;;;;;;;;;;;;;;;;;;;;;;;;;;;;;;;;;;;;;;
                             62 .macro add_REGPAIR_a rh, rl
                             63    ;; First Perform RH = E + A
                             64    add rl    ;; [1] A' = RL + A 
                             65    ld  rl, a ;; [1] RL' = A' = RL + A. It might generate Carry that must be added to RH
                             66    
                             67    ;; Then Perform RH = RH + Carry 
                             68    adc rh    ;; [1] A'' = A' + RH + Carry = RL + A + RH + Carry
                             69    sub rl    ;; [1] Remove RL'. A''' = A'' - RL' = RL + A + RH + Carry - (RL + A) = RH + Carry
                             70    ld  rh, a ;; [1] Save into RH (RH' = A''' = RH + Carry)
                             71 .endm
                             72 
                             73 ;;;;;;;;;;;;;;;;;;;;;;;;;;;;;;;;;;;;;;;;;;;;;;;;;;;;;;;;;;;;;;;;;;;;;;;;;;;;;;;;;;;;;;;;;
                             74 ;; Macro: add_de_a
                             75 ;;
                             76 ;;    Performs the operation DE = DE + A
                             77 ;;
                             78 ;; ASM Definition:
                             79 ;;    .macro <add_de_a>
                             80 ;;
                             81 ;; Parameters:
                             82 ;;    None
                             83 ;; 
                             84 ;; Input Registers: 
                             85 ;;    DE    - First sum operand and Destination Register
                             86 ;;    A     - Second sum operand
                             87 ;;
                             88 ;; Return Value:
                             89 ;;    DE - Holds the sum of DE + A
                             90 ;;
                             91 ;; Details:
                             92 ;;    This macro performs the sum of DE + A and stores it directly on DE.
                             93 ;; It uses only DE and A to perform the operation.
                             94 ;;    This macro is a direct instantiation of the macro <add_REGPAIR_a>.
                             95 ;;
                             96 ;; Modified Registers: 
                             97 ;;    A, DE
                             98 ;;
                             99 ;; Required memory:
                            100 ;;    5 bytes
                            101 ;;
                            102 ;; Time Measures:
                            103 ;; (start code)
                            104 ;;  Case | microSecs(us) | CPU Cycles
                            105 ;; ------------------------------------
                            106 ;;  Any  |       5       |     20
                            107 ;; ------------------------------------
                            108 ;; (end code)
                            109 ;;;;;;;;;;;;;;;;;;;;;;;;;;;;;;;;;;;;;;;;;;;;;;;;;;;;;;;;;;;;;;;;;;;;;;;;;;;;;;;;;;;;;;;;;
ASxxxx Assembler V02.00 + NoICE + SDCC mods  (Zilog Z80 / Hitachi HD64180), page 6.
Hexadecimal [16-Bits]



                            110 .macro add_de_a
                            111    add_REGPAIR_a  d, e
                            112 .endm
                            113 
                            114 ;;;;;;;;;;;;;;;;;;;;;;;;;;;;;;;;;;;;;;;;;;;;;;;;;;;;;;;;;;;;;;;;;;;;;;;;;;;;;;;;;;;;;;;;;
                            115 ;; Macro: add_hl_a
                            116 ;;
                            117 ;;    Performs the operation HL = HL + A
                            118 ;;
                            119 ;; ASM Definition:
                            120 ;;    .macro <add_hl_a>
                            121 ;;
                            122 ;; Parameters:
                            123 ;;    None
                            124 ;; 
                            125 ;; Input Registers: 
                            126 ;;    HL    - First sum operand and Destination Register
                            127 ;;    A     - Second sum operand
                            128 ;;
                            129 ;; Return Value:
                            130 ;;    HL - Holds the sum of HL + A
                            131 ;;
                            132 ;; Details:
                            133 ;;    This macro performs the sum of HL + A and stores it directly on HL.
                            134 ;; It uses only HL and A to perform the operation.
                            135 ;;    This macro is a direct instantiation of the macro <add_REGPAIR_a>.
                            136 ;;
                            137 ;; Modified Registers: 
                            138 ;;    A, HL
                            139 ;;
                            140 ;; Required memory:
                            141 ;;    5 bytes
                            142 ;;
                            143 ;; Time Measures:
                            144 ;; (start code)
                            145 ;;  Case | microSecs(us) | CPU Cycles
                            146 ;; ------------------------------------
                            147 ;;  Any  |       5       |     20
                            148 ;; ------------------------------------
                            149 ;; (end code)
                            150 ;;;;;;;;;;;;;;;;;;;;;;;;;;;;;;;;;;;;;;;;;;;;;;;;;;;;;;;;;;;;;;;;;;;;;;;;;;;;;;;;;;;;;;;;;
                            151 .macro add_hl_a
                            152    add_REGPAIR_a  h, l
                            153 .endm
                            154 
                            155 ;;;;;;;;;;;;;;;;;;;;;;;;;;;;;;;;;;;;;;;;;;;;;;;;;;;;;;;;;;;;;;;;;;;;;;;;;;;;;;;;;;;;;;;;;
                            156 ;; Macro: add_bc_a
                            157 ;;
                            158 ;;    Performs the operation BC = BC + A
                            159 ;;
                            160 ;; ASM Definition:
                            161 ;;    .macro <add_bc_a>
                            162 ;;
                            163 ;; Parameters:
                            164 ;;    None
ASxxxx Assembler V02.00 + NoICE + SDCC mods  (Zilog Z80 / Hitachi HD64180), page 7.
Hexadecimal [16-Bits]



                            165 ;; 
                            166 ;; Input Registers: 
                            167 ;;    BC    - First sum operand and Destination Register
                            168 ;;    A     - Second sum operand
                            169 ;;
                            170 ;; Return Value:
                            171 ;;    BC - Holds the sum of BC + A
                            172 ;;
                            173 ;; Details:
                            174 ;;    This macro performs the sum of BC + A and stores it directly on BC.
                            175 ;; It uses only BC and A to perform the operation.
                            176 ;;    This macro is a direct instantiation of the macro <add_REGPAIR_a>.
                            177 ;;
                            178 ;; Modified Registers: 
                            179 ;;    A, BC
                            180 ;;
                            181 ;; Required memory:
                            182 ;;    5 bytes
                            183 ;;
                            184 ;; Time Measures:
                            185 ;; (start code)
                            186 ;;  Case | microSecs(us) | CPU Cycles
                            187 ;; ------------------------------------
                            188 ;;  Any  |       5       |     20
                            189 ;; ------------------------------------
                            190 ;; (end code)
                            191 ;;;;;;;;;;;;;;;;;;;;;;;;;;;;;;;;;;;;;;;;;;;;;;;;;;;;;;;;;;;;;;;;;;;;;;;;;;;;;;;;;;;;;;;;;
                            192 .macro add_bc_a
                            193    add_REGPAIR_a  b, c
                            194 .endm
                            195 
                            196 ;;;;;;;;;;;;;;;;;;;;;;;;;;;;;;;;;;;;;;;;;;;;;;;;;;;;;;;;;;;;;;;;;;;;;;;;;;;;;;;;;;;;;;;;;
                            197 ;; Macro: sub_REGPAIR_a 
                            198 ;;
                            199 ;;    Performs the operation REGPAIR = REGPAIR - A. REGPAIR is any given pair of 8-bit registers.
                            200 ;;
                            201 ;; ASM Definition:
                            202 ;;    .macro <sub_REGPAIR_a> RH, RL
                            203 ;;
                            204 ;; Parameters:
                            205 ;;    RH    - Register 1 of the REGPAIR. Holds higher-byte value
                            206 ;;    RL    - Register 2 of the REGPAIR. Holds lower-byte value
                            207 ;;  ?JMPLBL - Optional Jump label. A temporal one will be produced if none is given.
                            208 ;; 
                            209 ;; Input Registers: 
                            210 ;;    RH:RL - 16-value used as left-operand and final storage for the subtraction
                            211 ;;    A     - Second subtraction operand (A > 0)
                            212 ;;
                            213 ;; Preconditions:
                            214 ;;    A > 0 - Value in register A is considered to be unsigned and must be greater
                            215 ;;            than 0 for this macro to work properly.
                            216 ;;
                            217 ;; Return Value:
                            218 ;;    RH:RL - Holds the result of RH:RL - A
                            219 ;;
ASxxxx Assembler V02.00 + NoICE + SDCC mods  (Zilog Z80 / Hitachi HD64180), page 8.
Hexadecimal [16-Bits]



                            220 ;; Details:
                            221 ;;    This macro performs the subtraction of RH:RL - A and stores it directly on RH:RL.
                            222 ;; It uses only RH:RL and A to perform the operation.
                            223 ;;    With respect to the optional label ?JMPLBL, it is often better not to provide 
                            224 ;; this parameter. A temporal local symbol will be automatically generated for that label.
                            225 ;; Only provide it when you have a specific reason to do that.
                            226 ;;
                            227 ;; Modified Registers: 
                            228 ;;    A, RH, RL
                            229 ;;
                            230 ;; Required memory:
                            231 ;;    7 bytes
                            232 ;;
                            233 ;; Time Measures:
                            234 ;; (start code)
                            235 ;;  Case | microSecs(us) | CPU Cycles
                            236 ;; ------------------------------------
                            237 ;;  Any  |       7       |     28
                            238 ;; ------------------------------------
                            239 ;; (end code)
                            240 ;;;;;;;;;;;;;;;;;;;;;;;;;;;;;;;;;;;;;;;;;;;;;;;;;;;;;;;;;;;;;;;;;;;;;;;;;;;;;;;;;;;;;;;;;
                            241 .macro sub_REGPAIR_a rh, rl, ?jmplbl
                            242    ;; First Perform A' = A - 1 - RL 
                            243    ;; (Inverse subtraction minus 1, used  to test for Carry, needed to know when to subtract 1 from RH)
                            244    dec    a          ;; [1] --A (In case A == RL, inverse subtraction should produce carry not to decrement RH)
                            245    sub   rl          ;; [1] A' = A - 1 - RL
                            246    jr     c, jmplbl  ;; [2/3] If A <= RL, Carry will be produced, and no decrement of RH is required, so jump over it
                            247      dec   rh        ;; [1] --RH (A > RL, so RH must be decremented)
                            248 jmplbl:   
                            249    ;; Now invert A to get the subtraction we wanted 
                            250    ;; { RL' = -A' - 1 = -(A - 1 - RL) - 1 = RL - A }
                            251    cpl            ;; [1] A'' = RL - A (Original subtraction we wanted, calculated trough one's complement of A')
                            252    ld    rl, a    ;; [1] Save into RL (RL' = RL - A)
                            253 .endm
                            254 
                            255 ;;;;;;;;;;;;;;;;;;;;;;;;;;;;;;;;;;;;;;;;;;;;;;;;;;;;;;;;;;;;;;;;;;;;;;;;;;;;;;;;;;;;;;;;;
                            256 ;; Macro: sub_de_a 
                            257 ;;
                            258 ;;    Performs the operation DE = DE - A. DE is any given pair of 8-bit registers.
                            259 ;;
                            260 ;; ASM Definition:
                            261 ;;    .macro <sub_de_a>
                            262 ;; 
                            263 ;; Input Registers: 
                            264 ;;    DE - 16-value used as left-operand and final storage for the subtraction
                            265 ;;    A  - Second subtraction operand
                            266 ;;
                            267 ;; Return Value:
                            268 ;;    DE - Holds the result of DE - A
                            269 ;;
                            270 ;; Details:
                            271 ;;    This macro performs the subtraction of DE - A and stores it directly on DE.
                            272 ;; It uses only DE and A to perform the operation.
                            273 ;;
                            274 ;; Modified Registers: 
ASxxxx Assembler V02.00 + NoICE + SDCC mods  (Zilog Z80 / Hitachi HD64180), page 9.
Hexadecimal [16-Bits]



                            275 ;;    A, DE
                            276 ;;
                            277 ;; Required memory:
                            278 ;;    7 bytes
                            279 ;;
                            280 ;; Time Measures:
                            281 ;; (start code)
                            282 ;;  Case | microSecs(us) | CPU Cycles
                            283 ;; ------------------------------------
                            284 ;;  Any  |       7       |     28
                            285 ;; ------------------------------------
                            286 ;; (end code)
                            287 ;;;;;;;;;;;;;;;;;;;;;;;;;;;;;;;;;;;;;;;;;;;;;;;;;;;;;;;;;;;;;;;;;;;;;;;;;;;;;;;;;;;;;;;;;
                            288 .macro sub_de_a
                            289    sub_REGPAIR_a  d, e
                            290 .endm
                            291 
                            292 ;;;;;;;;;;;;;;;;;;;;;;;;;;;;;;;;;;;;;;;;;;;;;;;;;;;;;;;;;;;;;;;;;;;;;;;;;;;;;;;;;;;;;;;;;
                            293 ;; Macro: sub_hl_a 
                            294 ;;
                            295 ;;    Performs the operation HL = HL - A. HL is any given pair of 8-bit registers.
                            296 ;;
                            297 ;; ASM Definition:
                            298 ;;    .macro <sub_hl_a>
                            299 ;; 
                            300 ;; Input Registers: 
                            301 ;;    HL - 16-value used as left-operand and final storage for the subtraction
                            302 ;;    A  - Second subtraction operand
                            303 ;;
                            304 ;; Return Value:
                            305 ;;    HL - Holds the result of HL - A
                            306 ;;
                            307 ;; Details:
                            308 ;;    This macro performs the subtraction of HL - A and stores it directly on HL.
                            309 ;; It uses only HL and A to perform the operation.
                            310 ;;
                            311 ;; Modified Registers: 
                            312 ;;    A, HL
                            313 ;;
                            314 ;; Required memory:
                            315 ;;    7 bytes
                            316 ;;
                            317 ;; Time Measures:
                            318 ;; (start code)
                            319 ;;  Case | microSecs(us) | CPU Cycles
                            320 ;; ------------------------------------
                            321 ;;  Any  |       7       |     28
                            322 ;; ------------------------------------
                            323 ;; (end code)
                            324 ;;;;;;;;;;;;;;;;;;;;;;;;;;;;;;;;;;;;;;;;;;;;;;;;;;;;;;;;;;;;;;;;;;;;;;;;;;;;;;;;;;;;;;;;;
                            325 .macro sub_hl_a
                            326    sub_REGPAIR_a  h, l
                            327 .endm
                            328 
                            329 ;;;;;;;;;;;;;;;;;;;;;;;;;;;;;;;;;;;;;;;;;;;;;;;;;;;;;;;;;;;;;;;;;;;;;;;;;;;;;;;;;;;;;;;;;
ASxxxx Assembler V02.00 + NoICE + SDCC mods  (Zilog Z80 / Hitachi HD64180), page 10.
Hexadecimal [16-Bits]



                            330 ;; Macro: sub_bc_a 
                            331 ;;
                            332 ;;    Performs the operation BC = BC - A. BC is any given pair of 8-bit registers.
                            333 ;;
                            334 ;; ASM Definition:
                            335 ;;    .macro <sub_bc_a>
                            336 ;; 
                            337 ;; Input Registers: 
                            338 ;;    BC - 16-value used as left-operand and final storage for the subtraction
                            339 ;;    A  - Second subtraction operand
                            340 ;;
                            341 ;; Return Value:
                            342 ;;    BC - Holds the result of BC - A
                            343 ;;
                            344 ;; Details:
                            345 ;;    This macro performs the subtraction of BC - A and stores it directly on BC.
                            346 ;; It uses only BC and A to perform the operation.
                            347 ;;
                            348 ;; Modified Registers: 
                            349 ;;    A, BC
                            350 ;;
                            351 ;; Required memory:
                            352 ;;    7 bytes
                            353 ;;
                            354 ;; Time Measures:
                            355 ;; (start code)
                            356 ;;  Case | microSecs(us) | CPU Cycles
                            357 ;; ------------------------------------
                            358 ;;  Any  |       7       |     28
                            359 ;; ------------------------------------
                            360 ;; (end code)
                            361 ;;;;;;;;;;;;;;;;;;;;;;;;;;;;;;;;;;;;;;;;;;;;;;;;;;;;;;;;;;;;;;;;;;;;;;;;;;;;;;;;;;;;;;;;;
                            362 .macro sub_bc_a
                            363    sub_REGPAIR_a  b, c
                            364 .endm
ASxxxx Assembler V02.00 + NoICE + SDCC mods  (Zilog Z80 / Hitachi HD64180), page 11.
Hexadecimal [16-Bits]



                             20 .include "macros/cpct_opcodeConstants.h.s"
                              1 ;;-----------------------------LICENSE NOTICE------------------------------------
                              2 ;;  This file is part of CPCtelera: An Amstrad CPC Game Engine 
                              3 ;;  Copyright (C) 2016 ronaldo / Fremos / Cheesetea / ByteRealms (@FranGallegoBR)
                              4 ;;
                              5 ;;  This program is free software: you can redistribute it and/or modify
                              6 ;;  it under the terms of the GNU Lesser General Public License as published by
                              7 ;;  the Free Software Foundation, either version 3 of the License, or
                              8 ;;  (at your option) any later version.
                              9 ;;
                             10 ;;  This program is distributed in the hope that it will be useful,
                             11 ;;  but WITHOUT ANY WARRANTY; without even the implied warranty of
                             12 ;;  MERCHANTABILITY or FITNESS FOR A PARTICULAR PURPOSE.  See the
                             13 ;;  GNU Lesser General Public License for more details.
                             14 ;;
                             15 ;;  You should have received a copy of the GNU Lesser General Public License
                             16 ;;  along with this program.  If not, see <http://www.gnu.org/licenses/>.
                             17 ;;-------------------------------------------------------------------------------
                             18 
                             19 ;;
                             20 ;; File: Opcodes
                             21 ;;
                             22 ;;    Constant definitions of Z80 opcodes. This will be normally used as data
                             23 ;; for self-modifying code.
                             24 ;;
                             25 
                             26 ;; Constant: opc_JR
                             27 ;;    Opcode for "JR xx" instruction. Requires 1-byte parameter (xx)
                     0018    28 opc_JR   = 0x18
                             29 
                             30 ;; Constant: opc_LD_D
                             31 ;;    Opcode for "LD d, xx" instruction. Requires 1-byte parameter (xx)
                     0016    32 opc_LD_D = 0x16
                             33 
                             34 ;; Constant: opc_EI
                             35 ;;    Opcode for "EI" instruction. 
                     00FB    36 opc_EI = 0xFB
                             37 
                             38 ;; Constant: opc_DI
                             39 ;;    Opcode for "DI" instruction. 
                     00F3    40 opc_DI = 0xF3
ASxxxx Assembler V02.00 + NoICE + SDCC mods  (Zilog Z80 / Hitachi HD64180), page 12.
Hexadecimal [16-Bits]



                             21 .include "macros/cpct_reverseBits.h.s"
                              1 ;;-----------------------------LICENSE NOTICE------------------------------------
                              2 ;;  This file is part of CPCtelera: An Amstrad CPC Game Engine 
                              3 ;;  Copyright (C) 2016 ronaldo / Fremos / Cheesetea / ByteRealms (@FranGallegoBR)
                              4 ;;
                              5 ;;  This program is free software: you can redistribute it and/or modify
                              6 ;;  it under the terms of the GNU Lesser General Public License as published by
                              7 ;;  the Free Software Foundation, either version 3 of the License, or
                              8 ;;  (at your option) any later version.
                              9 ;;
                             10 ;;  This program is distributed in the hope that it will be useful,
                             11 ;;  but WITHOUT ANY WARRANTY; without even the implied warranty of
                             12 ;;  MERCHANTABILITY or FITNESS FOR A PARTICULAR PURPOSE.  See the
                             13 ;;  GNU Lesser General Public License for more details.
                             14 ;;
                             15 ;;  You should have received a copy of the GNU Lesser General Public License
                             16 ;;  along with this program.  If not, see <http://www.gnu.org/licenses/>.
                             17 ;;-------------------------------------------------------------------------------
                             18 
                             19 ;;
                             20 ;; File: Reverse Bits
                             21 ;;
                             22 ;;    Useful macros for bit reversing and selecting in different ways. Only
                             23 ;; valid to be used from assembly language (not from C).
                             24 ;;
                             25 
                             26 ;;;;;;;;;;;;;;;;;;;;;;;;;;;;;;;;;;;;;;;;;;;;;;;;;;;;;;;;;;;;;;;;;;;;;;;;;;;;;;;;;;;;;;;;;
                             27 ;; Macro: cpctm_reverse_and_select_bits_of_A
                             28 ;;
                             29 ;;    Reorders the bits of A and mixes them letting the user select the 
                             30 ;; new order for the bits by using a selection mask.
                             31 ;;
                             32 ;; Parameters:
                             33 ;;    TReg          - An 8-bits register that will be used for intermediate calculations.
                             34 ;; This register may be one of these: B, C, D, E, H, L
                             35 ;;    SelectionMask - An 8-bits mask that will be used to select the bits to get from 
                             36 ;; the reordered bits. It might be an 8-bit register or even (hl).
                             37 ;; 
                             38 ;; Input Registers: 
                             39 ;;    A     - Byte to be reversed
                             40 ;;    TReg  - Should have a copy of A (same exact value)
                             41 ;;
                             42 ;; Return Value:
                             43 ;;    A - Resulting value with bits reversed and selected 
                             44 ;;
                             45 ;; Details:
                             46 ;;    This macro reorders the bits in A and mixes them with the same bits in
                             47 ;; their original order by using a *SelectionMask*. The process is as follows:
                             48 ;;
                             49 ;;    1. Consider the 8 bits of A = TReg = [01234567]
                             50 ;;    2. Reorder the 8 bits of A, producing A2 = [32547610]
                             51 ;;    2. Reorder the bits of TReg, producing TReg2 = [76103254]
                             52 ;;    3. Combines both reorders into final result using a *SelectionMask*. Each 
                             53 ;; 0 bit from the selection mask means "select bit from A2", whereas each 1 bit
                             54 ;; means "select bit from TReg2".
ASxxxx Assembler V02.00 + NoICE + SDCC mods  (Zilog Z80 / Hitachi HD64180), page 13.
Hexadecimal [16-Bits]



                             55 ;;
                             56 ;;    For instance, a selection mask 0b11001100 will produce this result:
                             57 ;;
                             58 ;; (start code)
                             59 ;;       A2 = [ 32 54 76 10 ]
                             60 ;;    TReg2 = [ 76 10 32 54 ]
                             61 ;;  SelMask = [ 11 00 11 00 ] // 1 = TReg2-bits, 0 = A2-bits
                             62 ;;  ---------------------------
                             63 ;;   Result = [ 76 54 32 10 ]
                             64 ;; (end code)
                             65 ;;
                             66 ;;    Therefore, mask 0b11001100 produces the effect of reversing the bits of A
                             67 ;; completely. Other masks will produce different reorders of the bits in A, for
                             68 ;; different requirements or needs.
                             69 ;;
                             70 ;; Modified Registers: 
                             71 ;;    AF, TReg
                             72 ;;
                             73 ;; Required memory:
                             74 ;;    16 bytes
                             75 ;;
                             76 ;; Time Measures:
                             77 ;; (start code)
                             78 ;;  Case | microSecs(us) | CPU Cycles
                             79 ;; ------------------------------------
                             80 ;;  Any  |      16       |     64
                             81 ;; ------------------------------------
                             82 ;; (end code)
                             83 ;;;;;;;;;;;;;;;;;;;;;;;;;;;;;;;;;;;;;;;;;;;;;;;;;;;;;;;;;;;;;;;;;;;;;;;;;;;;;;;;;;;;;;;;;
                             84 .macro cpctm_reverse_and_select_bits_of_A  TReg, SelectionMask
                             85    rlca            ;; [1] | Rotate left twice so that...
                             86    rlca            ;; [1] | ... A=[23456701]
                             87 
                             88    ;; Mix bits of TReg and A so that all bits are in correct relative order
                             89    ;; but displaced from their final desired location
                             90    xor TReg        ;; [1] TReg = [01234567] (original value)
                             91    and #0b01010101 ;; [2]    A = [23456701] (bits rotated twice left)
                             92    xor TReg        ;; [1]   A2 = [03254761] (TReg mixed with A to get bits in order)
                             93    
                             94    ;; Now get bits 54 and 10 in their right location and save them into TReg
                             95    rlca            ;; [1]    A = [ 32 54 76 10 ] (54 and 10 are in their desired place)
                             96    ld TReg, a      ;; [1] TReg = A (Save this bit location into TReg)
                             97    
                             98    ;; Now get bits 76 and 32 in their right location in A
                             99    rrca            ;; [1] | Rotate A right 4 times to...
                            100    rrca            ;; [1] | ... get bits 76 and 32 located at their ...
                            101    rrca            ;; [1] | ... desired location :
                            102    rrca            ;; [1] | ... A = [ 76 10 32 54 ] (76 and 32 are in their desired place)
                            103    
                            104    ;; Finally, mix bits from TReg and A to get all bits reversed and selected
                            105    xor TReg          ;; [1] TReg = [32547610] (Mixed bits with 54 & 10 in their right place)
                            106    and SelectionMask ;; [2]    A = [76103254] (Mixed bits with 76 & 32 in their right place)
                            107    xor TReg          ;; [1]   A2 = [xxxxxxxx] final value: bits of A reversed and selected using *SelectionMask*
                            108 .endm
                            109 
ASxxxx Assembler V02.00 + NoICE + SDCC mods  (Zilog Z80 / Hitachi HD64180), page 14.
Hexadecimal [16-Bits]



                            110 ;;;;;;;;;;;;;;;;;;;;;;;;;;;;;;;;;;;;;;;;;;;;;;;;;;;;;;;;;;;;;;;;;;;;;;;;;;;;;;;;;;;;;;;;;
                            111 ;; Macro: cpctm_reverse_bits_of_A 
                            112 ;; Macro: cpctm_reverse_mode_2_pixels_of_A
                            113 ;;
                            114 ;;    Reverses the 8-bits of A, from [01234567] to [76543210]. This also reverses
                            115 ;; all pixels contained in A when A is in screen pixel format, mode 2.
                            116 ;;
                            117 ;; Parameters:
                            118 ;;    TReg - An 8-bits register that will be used for intermediate calculations.
                            119 ;; This register may be one of these: B, C, D, E, H, L
                            120 ;; 
                            121 ;; Input Registers: 
                            122 ;;    A    - Byte to be reversed
                            123 ;;    TReg - Should have a copy of A (same exact value)
                            124 ;;
                            125 ;; Return Value:
                            126 ;;    A - Resulting value with bits reversed 
                            127 ;;
                            128 ;; Requires:
                            129 ;;   - Uses the macro <cpctm_reverse_and_select_bits_of_A>.
                            130 ;;
                            131 ;; Details:
                            132 ;;    This macro reverses the bits in A. If bits of A = [01234567], the final
                            133 ;; result after processing this macro will be A = [76543210]. Register TReg is
                            134 ;; used for intermediate calculations and its value is destroyed.
                            135 ;;
                            136 ;; Modified Registers: 
                            137 ;;    AF, TReg
                            138 ;;
                            139 ;; Required memory:
                            140 ;;    16 bytes
                            141 ;;
                            142 ;; Time Measures:
                            143 ;; (start code)
                            144 ;;  Case | microSecs(us) | CPU Cycles
                            145 ;; ------------------------------------
                            146 ;;  Any  |      16       |     64
                            147 ;; ------------------------------------
                            148 ;; (end code)
                            149 ;;;;;;;;;;;;;;;;;;;;;;;;;;;;;;;;;;;;;;;;;;;;;;;;;;;;;;;;;;;;;;;;;;;;;;;;;;;;;;;;;;;;;;;;;
                            150 .macro cpctm_reverse_bits_of_A  TReg
                            151    cpctm_reverse_and_select_bits_of_A  TReg, #0b11001100
                            152 .endm
                            153 .macro cpctm_reverse_mode_2_pixels_of_A   TReg
                            154    cpctm_reverse_bits_of_A  TReg
                            155 .endm
                            156 
                            157 ;;;;;;;;;;;;;;;;;;;;;;;;;;;;;;;;;;;;;;;;;;;;;;;;;;;;;;;;;;;;;;;;;;;;;;;;;;;;;;;;;;;;;;;;;
                            158 ;; Macro: cpctm_reverse_mode_1_pixels_of_A
                            159 ;;
                            160 ;;    Reverses the order of pixel values contained in register A, assuming A is 
                            161 ;; in screen pixel format, mode 1.
                            162 ;;
                            163 ;; Parameters:
                            164 ;;    TReg - An 8-bits register that will be used for intermediate calculations.
ASxxxx Assembler V02.00 + NoICE + SDCC mods  (Zilog Z80 / Hitachi HD64180), page 15.
Hexadecimal [16-Bits]



                            165 ;; This register may be one of these: B, C, D, E, H, L
                            166 ;; 
                            167 ;; Input Registers: 
                            168 ;;    A    - Byte with pixel values to be reversed
                            169 ;;    TReg - Should have a copy of A (same exact value)
                            170 ;;
                            171 ;; Return Value:
                            172 ;;    A - Resulting byte with the 4 pixels values reversed in order
                            173 ;;
                            174 ;; Requires:
                            175 ;;   - Uses the macro <cpctm_reverse_and_select_bits_of_A>.
                            176 ;;
                            177 ;; Details:
                            178 ;;    This macro considers that A contains a byte that codifies 4 pixels in 
                            179 ;; screen pixel format, mode 1. It modifies A to reverse the order of its 4 
                            180 ;; contained pixel values left-to-right (1234 -> 4321). With respect to the 
                            181 ;; order of the 8-bits of A, the concrete operations performed is:
                            182 ;; (start code)
                            183 ;;    A = [01234567] == reverse-pixels ==> [32107654] = A2
                            184 ;; (end code)
                            185 ;;    You may want to check <cpct_px2byteM1> to know how bits codify both pixels
                            186 ;; in one single byte for screen pixel format, mode 1.
                            187 ;;
                            188 ;;    *TReg* is an 8-bit register that will be used for intermediate calculations,
                            189 ;; destroying its original value (that should be same as A, at the start).
                            190 ;;
                            191 ;; Modified Registers: 
                            192 ;;    AF, TReg
                            193 ;;
                            194 ;; Required memory:
                            195 ;;    16 bytes
                            196 ;;
                            197 ;; Time Measures:
                            198 ;; (start code)
                            199 ;;  Case | microSecs(us) | CPU Cycles
                            200 ;; ------------------------------------
                            201 ;;  Any  |      16       |     64
                            202 ;; ------------------------------------
                            203 ;; (end code)
                            204 ;;;;;;;;;;;;;;;;;;;;;;;;;;;;;;;;;;;;;;;;;;;;;;;;;;;;;;;;;;;;;;;;;;;;;;;;;;;;;;;;;;;;;;;;;
                            205 .macro cpctm_reverse_mode_1_pixels_of_A  TReg
                            206    cpctm_reverse_and_select_bits_of_A  TReg, #0b00110011
                            207 .endm
                            208 
                            209 ;;;;;;;;;;;;;;;;;;;;;;;;;;;;;;;;;;;;;;;;;;;;;;;;;;;;;;;;;;;;;;;;;;;;;;;;;;;;;;;;;;;;;;;;;
                            210 ;; Macro: cpctm_reverse_mode_0_pixels_of_A
                            211 ;;
                            212 ;;    Reverses the order of pixel values contained in register A, assuming A is 
                            213 ;; in screen pixel format, mode 0.
                            214 ;;
                            215 ;; Parameters:
                            216 ;;    TReg - An 8-bits register that will be used for intermediate calculations.
                            217 ;; This register may be one of these: B, C, D, E, H, L
                            218 ;; 
                            219 ;; Input Registers: 
ASxxxx Assembler V02.00 + NoICE + SDCC mods  (Zilog Z80 / Hitachi HD64180), page 16.
Hexadecimal [16-Bits]



                            220 ;;    A    - Byte with pixel values to be reversed
                            221 ;;    TReg - Should have a copy of A (same exact value)
                            222 ;;
                            223 ;; Return Value:
                            224 ;;    A - Resulting byte with the 2 pixels values reversed in order
                            225 ;;
                            226 ;; Details:
                            227 ;;    This macro considers that A contains a byte that codifies 2 pixels in 
                            228 ;; screen pixel format, mode 0. It modifies A to reverse the order of its 2 
                            229 ;; contained pixel values left-to-right (12 -> 21). With respect to the 
                            230 ;; order of the 8-bits of A, the concrete operation performed is:
                            231 ;; (start code)
                            232 ;;    A = [01234567] == reverse-pixels ==> [10325476] = A2
                            233 ;; (end code)
                            234 ;;    You may want to check <cpct_px2byteM0> to know how bits codify both pixels
                            235 ;; in one single byte for screen pixel format, mode 0.
                            236 ;;
                            237 ;;    *TReg* is an 8-bit register that will be used for intermediate calculations,
                            238 ;; destroying its original value (that should be same as A, at the start).
                            239 ;;
                            240 ;; Modified Registers: 
                            241 ;;    AF, TReg
                            242 ;;
                            243 ;; Required memory:
                            244 ;;    7 bytes
                            245 ;;
                            246 ;; Time Measures:
                            247 ;; (start code)
                            248 ;;  Case | microSecs(us) | CPU Cycles
                            249 ;; ------------------------------------
                            250 ;;  Any  |       7       |     28
                            251 ;; ------------------------------------
                            252 ;; (end code)
                            253 ;;;;;;;;;;;;;;;;;;;;;;;;;;;;;;;;;;;;;;;;;;;;;;;;;;;;;;;;;;;;;;;;;;;;;;;;;;;;;;;;;;;;;;;;;
                            254 .macro cpctm_reverse_mode_0_pixels_of_A  TReg
                            255    rlca            ;; [1] | Rotate A twice to the left to get bits ordered...
                            256    rlca            ;; [1] | ... in the way we need for mixing, A = [23456701]
                            257   
                            258    ;; Mix TReg with A to get pixels reversed by reordering bits
                            259    xor TReg        ;; [1] | TReg = [01234567]
                            260    and #0b01010101 ;; [2] |    A = [23456701]
                            261    xor TReg        ;; [1] |   A2 = [03254761]
                            262    rrca            ;; [1] Rotate right to get pixels reversed A = [10325476]
                            263 .endm
ASxxxx Assembler V02.00 + NoICE + SDCC mods  (Zilog Z80 / Hitachi HD64180), page 17.
Hexadecimal [16-Bits]



                             22 .include "macros/cpct_undocumentedOpcodes.h.s"
                              1 ;;-----------------------------LICENSE NOTICE------------------------------------
                              2 ;;  This file is part of CPCtelera: An Amstrad CPC Game Engine 
                              3 ;;  Copyright (C) 2016 ronaldo / Fremos / Cheesetea / ByteRealms (@FranGallegoBR)
                              4 ;;
                              5 ;;  This program is free software: you can redistribute it and/or modify
                              6 ;;  it under the terms of the GNU Lesser General Public License as published by
                              7 ;;  the Free Software Foundation, either version 3 of the License, or
                              8 ;;  (at your option) any later version.
                              9 ;;
                             10 ;;  This program is distributed in the hope that it will be useful,
                             11 ;;  but WITHOUT ANY WARRANTY; without even the implied warranty of
                             12 ;;  MERCHANTABILITY or FITNESS FOR A PARTICULAR PURPOSE.  See the
                             13 ;;  GNU Lesser General Public License for more details.
                             14 ;;
                             15 ;;  You should have received a copy of the GNU Lesser General Public License
                             16 ;;  along with this program.  If not, see <http://www.gnu.org/licenses/>.
                             17 ;;-------------------------------------------------------------------------------
                             18 
                             19 ;;
                             20 ;; File: Undocumented Opcodes
                             21 ;;
                             22 ;;    Macros to clarify source code when using undocumented opcodes. Only
                             23 ;; valid to be used from assembly language (not from C).
                             24 ;;
                             25 
                             26 ;; Macro: jr__0
                             27 ;;    Opcode for "JR #0" instruction
                             28 ;; 
                             29 .macro jr__0
                             30    .DW #0x0018  ;; JR #00 (Normally used as a modifiable jump, as jr 0 is an infinite loop)
                             31 .endm
                             32 
                             33 ;;;;;;;;;;;;;;;;;;;;;;;;;;;;;;;;;;;;;;;;;;;;;;;;;;;;;;;;;;;;;;;;;;;;;;;;;;;;;;;;;;;;;;;;;;,
                             34 ;;;;;;;;;;;;;;;;;;;;;;;;;;;;;;;;;;;;;;;;;;;;;;;;;;;;;;;;;;;;;;;;;;;;;;;;;;;;;;;;;;;;;;;;;;,
                             35 ;; SLL Instructions
                             36 ;;;;;;;;;;;;;;;;;;;;;;;;;;;;;;;;;;;;;;;;;;;;;;;;;;;;;;;;;;;;;;;;;;;;;;;;;;;;;;;;;;;;;;;;;;,
                             37 ;;;;;;;;;;;;;;;;;;;;;;;;;;;;;;;;;;;;;;;;;;;;;;;;;;;;;;;;;;;;;;;;;;;;;;;;;;;;;;;;;;;;;;;;;;,
                             38 
                             39 ;; Macro: sll__b
                             40 ;;    Opcode for "SLL b" instruction
                             41 ;; 
                             42 .macro sll__b
                             43    .db #0xCB, #0x30  ;; Opcode for sll b
                             44 .endm
                             45 
                             46 ;; Macro: sll__c
                             47 ;;    Opcode for "SLL c" instruction
                             48 ;; 
                             49 .macro sll__c
                             50    .db #0xCB, #0x31  ;; Opcode for sll c
                             51 .endm
                             52 
                             53 ;; Macro: sll__d
                             54 ;;    Opcode for "SLL d" instruction
ASxxxx Assembler V02.00 + NoICE + SDCC mods  (Zilog Z80 / Hitachi HD64180), page 18.
Hexadecimal [16-Bits]



                             55 ;; 
                             56 .macro sll__d
                             57    .db #0xCB, #0x32  ;; Opcode for sll d
                             58 .endm
                             59 
                             60 ;; Macro: sll__e
                             61 ;;    Opcode for "SLL e" instruction
                             62 ;; 
                             63 .macro sll__e
                             64    .db #0xCB, #0x33  ;; Opcode for sll e
                             65 .endm
                             66 
                             67 ;; Macro: sll__h
                             68 ;;    Opcode for "SLL h" instruction
                             69 ;; 
                             70 .macro sll__h
                             71    .db #0xCB, #0x34  ;; Opcode for sll h
                             72 .endm
                             73 
                             74 ;; Macro: sll__l
                             75 ;;    Opcode for "SLL l" instruction
                             76 ;; 
                             77 .macro sll__l
                             78    .db #0xCB, #0x35  ;; Opcode for sll l
                             79 .endm
                             80 
                             81 ;; Macro: sll___hl_
                             82 ;;    Opcode for "SLL (hl)" instruction
                             83 ;; 
                             84 .macro sll___hl_
                             85    .db #0xCB, #0x36  ;; Opcode for sll (hl)
                             86 .endm
                             87 
                             88 ;; Macro: sll__a
                             89 ;;    Opcode for "SLL a" instruction
                             90 ;; 
                             91 .macro sll__a
                             92    .db #0xCB, #0x37  ;; Opcode for sll a
                             93 .endm
                             94 
                             95 ;;;;;;;;;;;;;;;;;;;;;;;;;;;;;;;;;;;;;;;;;;;;;;;;;;;;;;;;;;;;;;;;;;;;;;;;;;;;;;;;;;;;;;;;;;,
                             96 ;;;;;;;;;;;;;;;;;;;;;;;;;;;;;;;;;;;;;;;;;;;;;;;;;;;;;;;;;;;;;;;;;;;;;;;;;;;;;;;;;;;;;;;;;;,
                             97 ;; IXL Related Macros
                             98 ;;;;;;;;;;;;;;;;;;;;;;;;;;;;;;;;;;;;;;;;;;;;;;;;;;;;;;;;;;;;;;;;;;;;;;;;;;;;;;;;;;;;;;;;;;,
                             99 ;;;;;;;;;;;;;;;;;;;;;;;;;;;;;;;;;;;;;;;;;;;;;;;;;;;;;;;;;;;;;;;;;;;;;;;;;;;;;;;;;;;;;;;;;;,
                            100 
                            101 ;; Macro: ld__ixl    Value
                            102 ;;    Opcode for "LD ixl, Value" instruction
                            103 ;;  
                            104 ;; Parameters:
                            105 ;;    Value - An inmediate 8-bits value that will be loaded into ixl
                            106 ;; 
                            107 .macro ld__ixl    Value 
                            108    .db #0xDD, #0x2E, Value  ;; Opcode for ld ixl, Value
                            109 .endm
ASxxxx Assembler V02.00 + NoICE + SDCC mods  (Zilog Z80 / Hitachi HD64180), page 19.
Hexadecimal [16-Bits]



                            110 
                            111 ;; Macro: ld__ixl_a
                            112 ;;    Opcode for "LD ixl, a" instruction
                            113 ;; 
                            114 .macro ld__ixl_a
                            115    .dw #0x6FDD  ;; Opcode for ld ixl, a
                            116 .endm
                            117 
                            118 ;; Macro: ld__ixl_b
                            119 ;;    Opcode for "LD ixl, B" instruction
                            120 ;; 
                            121 .macro ld__ixl_b
                            122    .dw #0x68DD  ;; Opcode for ld ixl, b
                            123 .endm
                            124 
                            125 ;; Macro: ld__ixl_c
                            126 ;;    Opcode for "LD ixl, C" instruction
                            127 ;; 
                            128 .macro ld__ixl_c
                            129    .dw #0x69DD  ;; Opcode for ld ixl, c
                            130 .endm
                            131 
                            132 ;; Macro: ld__ixl_d
                            133 ;;    Opcode for "LD ixl, D" instruction
                            134 ;; 
                            135 .macro ld__ixl_d
                            136    .dw #0x6ADD  ;; Opcode for ld ixl, d
                            137 .endm
                            138 
                            139 ;; Macro: ld__ixl_e
                            140 ;;    Opcode for "LD ixl, E" instruction
                            141 ;; 
                            142 .macro ld__ixl_e
                            143    .dw #0x6BDD  ;; Opcode for ld ixl, e
                            144 .endm
                            145 
                            146 ;; Macro: ld__ixl_ixh
                            147 ;;    Opcode for "LD ixl, IXH" instruction
                            148 ;; 
                            149 .macro ld__ixl_ixh
                            150    .dw #0x6CDD  ;; Opcode for ld ixl, ixh
                            151 .endm
                            152 
                            153 ;; Macro: ld__a_ixl
                            154 ;;    Opcode for "LD A, ixl" instruction
                            155 ;; 
                            156 .macro ld__a_ixl
                            157    .dw #0x7DDD  ;; Opcode for ld a, ixl
                            158 .endm
                            159 
                            160 ;; Macro: ld__b_ixl
                            161 ;;    Opcode for "LD B, ixl" instruction
                            162 ;; 
                            163 .macro ld__b_ixl
                            164    .dw #0x45DD  ;; Opcode for ld b, ixl
ASxxxx Assembler V02.00 + NoICE + SDCC mods  (Zilog Z80 / Hitachi HD64180), page 20.
Hexadecimal [16-Bits]



                            165 .endm
                            166 
                            167 ;; Macro: ld__c_ixl
                            168 ;;    Opcode for "LD c, ixl" instruction
                            169 ;; 
                            170 .macro ld__c_ixl
                            171    .dw #0x4DDD  ;; Opcode for ld c, ixl
                            172 .endm
                            173 
                            174 ;; Macro: ld__d_ixl
                            175 ;;    Opcode for "LD D, ixl" instruction
                            176 ;; 
                            177 .macro ld__d_ixl
                            178    .dw #0x55DD  ;; Opcode for ld d, ixl
                            179 .endm
                            180 
                            181 ;; Macro: ld__e_ixl
                            182 ;;    Opcode for "LD e, ixl" instruction
                            183 ;; 
                            184 .macro ld__e_ixl
                            185    .dw #0x5DDD  ;; Opcode for ld e, ixl
                            186 .endm
                            187 
                            188 ;; Macro: add__ixl
                            189 ;;    Opcode for "Add ixl" instruction
                            190 ;; 
                            191 .macro add__ixl
                            192    .dw #0x85DD  ;; Opcode for add ixl
                            193 .endm
                            194 
                            195 ;; Macro: sub__ixl
                            196 ;;    Opcode for "SUB ixl" instruction
                            197 ;; 
                            198 .macro sub__ixl
                            199    .dw #0x95DD  ;; Opcode for sub ixl
                            200 .endm
                            201 
                            202 ;; Macro: adc__ixl
                            203 ;;    Opcode for "ADC ixl" instruction
                            204 ;; 
                            205 .macro adc__ixl
                            206    .dw #0x8DDD  ;; Opcode for adc ixl
                            207 .endm
                            208 
                            209 ;; Macro: sbc__ixl
                            210 ;;    Opcode for "SBC ixl" instruction
                            211 ;; 
                            212 .macro sbc__ixl
                            213    .dw #0x9DDD  ;; Opcode for sbc ixl
                            214 .endm
                            215 
                            216 ;; Macro: and__ixl
                            217 ;;    Opcode for "AND ixl" instruction
                            218 ;; 
                            219 .macro and__ixl
ASxxxx Assembler V02.00 + NoICE + SDCC mods  (Zilog Z80 / Hitachi HD64180), page 21.
Hexadecimal [16-Bits]



                            220    .dw #0xA5DD  ;; Opcode for and ixl
                            221 .endm
                            222 
                            223 ;; Macro: or__ixl
                            224 ;;    Opcode for "OR ixl" instruction
                            225 ;; 
                            226 .macro or__ixl
                            227    .dw #0xB5DD  ;; Opcode for or ixl
                            228 .endm
                            229 
                            230 ;; Macro: xor__ixl
                            231 ;;    Opcode for "XOR ixl" instruction
                            232 ;; 
                            233 .macro xor__ixl
                            234    .dw #0xADDD  ;; Opcode for xor ixl
                            235 .endm
                            236 
                            237 ;; Macro: cp__ixl
                            238 ;;    Opcode for "CP ixl" instruction
                            239 ;; 
                            240 .macro cp__ixl
                            241    .dw #0xBDDD  ;; Opcode for cp ixl
                            242 .endm
                            243 
                            244 ;; Macro: dec__ixl
                            245 ;;    Opcode for "DEC ixl" instruction
                            246 ;; 
                            247 .macro dec__ixl
                            248    .dw #0x2DDD  ;; Opcode for dec ixl
                            249 .endm
                            250 
                            251 ;; Macro: inc__ixl
                            252 ;;    Opcode for "INC ixl" instruction
                            253 ;; 
                            254 .macro inc__ixl
                            255    .dw #0x2CDD  ;; Opcode for inc ixl
                            256 .endm
                            257 
                            258 
                            259 ;;;;;;;;;;;;;;;;;;;;;;;;;;;;;;;;;;;;;;;;;;;;;;;;;;;;;;;;;;;;;;;;;;;;;;;;;;;;;;;;;;;;;;;;;;,
                            260 ;;;;;;;;;;;;;;;;;;;;;;;;;;;;;;;;;;;;;;;;;;;;;;;;;;;;;;;;;;;;;;;;;;;;;;;;;;;;;;;;;;;;;;;;;;,
                            261 ;; IXH Related Macros
                            262 ;;;;;;;;;;;;;;;;;;;;;;;;;;;;;;;;;;;;;;;;;;;;;;;;;;;;;;;;;;;;;;;;;;;;;;;;;;;;;;;;;;;;;;;;;;,
                            263 ;;;;;;;;;;;;;;;;;;;;;;;;;;;;;;;;;;;;;;;;;;;;;;;;;;;;;;;;;;;;;;;;;;;;;;;;;;;;;;;;;;;;;;;;;;,
                            264 
                            265 ;; Macro: ld__ixh    Value
                            266 ;;    Opcode for "LD IXH, Value" instruction
                            267 ;;  
                            268 ;; Parameters:
                            269 ;;    Value - An inmediate 8-bits value that will be loaded into IXH
                            270 ;; 
                            271 .macro ld__ixh    Value 
                            272    .db #0xDD, #0x26, Value  ;; Opcode for ld ixh, Value
                            273 .endm
                            274 
ASxxxx Assembler V02.00 + NoICE + SDCC mods  (Zilog Z80 / Hitachi HD64180), page 22.
Hexadecimal [16-Bits]



                            275 ;; Macro: ld__ixh_a
                            276 ;;    Opcode for "LD IXH, a" instruction
                            277 ;; 
                            278 .macro ld__ixh_a
                            279    .dw #0x67DD  ;; Opcode for ld ixh, a
                            280 .endm
                            281 
                            282 ;; Macro: ld__ixh_b
                            283 ;;    Opcode for "LD IXH, B" instruction
                            284 ;; 
                            285 .macro ld__ixh_b
                            286    .dw #0x60DD  ;; Opcode for ld ixh, b
                            287 .endm
                            288 
                            289 ;; Macro: ld__ixh_c
                            290 ;;    Opcode for "LD IXH, C" instruction
                            291 ;; 
                            292 .macro ld__ixh_c
                            293    .dw #0x61DD  ;; Opcode for ld ixh, c
                            294 .endm
                            295 
                            296 ;; Macro: ld__ixh_d
                            297 ;;    Opcode for "LD IXH, D" instruction
                            298 ;; 
                            299 .macro ld__ixh_d
                            300    .dw #0x62DD  ;; Opcode for ld ixh, d
                            301 .endm
                            302 
                            303 ;; Macro: ld__ixh_e
                            304 ;;    Opcode for "LD IXH, E" instruction
                            305 ;; 
                            306 .macro ld__ixh_e
                            307    .dw #0x63DD  ;; Opcode for ld ixh, e
                            308 .endm
                            309 
                            310 ;; Macro: ld__ixh_ixl
                            311 ;;    Opcode for "LD IXH, IXL" instruction
                            312 ;; 
                            313 .macro ld__ixh_ixl
                            314    .dw #0x65DD  ;; Opcode for ld ixh, ixl
                            315 .endm
                            316 
                            317 ;; Macro: ld__a_ixh
                            318 ;;    Opcode for "LD A, IXH" instruction
                            319 ;; 
                            320 .macro ld__a_ixh
                            321    .dw #0x7CDD  ;; Opcode for ld a, ixh
                            322 .endm
                            323 
                            324 ;; Macro: ld__b_ixh
                            325 ;;    Opcode for "LD B, IXH" instruction
                            326 ;; 
                            327 .macro ld__b_ixh
                            328    .dw #0x44DD  ;; Opcode for ld b, ixh
                            329 .endm
ASxxxx Assembler V02.00 + NoICE + SDCC mods  (Zilog Z80 / Hitachi HD64180), page 23.
Hexadecimal [16-Bits]



                            330 
                            331 ;; Macro: ld__c_ixh
                            332 ;;    Opcode for "LD c, IXH" instruction
                            333 ;; 
                            334 .macro ld__c_ixh
                            335    .dw #0x4CDD  ;; Opcode for ld c, ixh
                            336 .endm
                            337 
                            338 ;; Macro: ld__d_ixh
                            339 ;;    Opcode for "LD D, IXH" instruction
                            340 ;; 
                            341 .macro ld__d_ixh
                            342    .dw #0x54DD  ;; Opcode for ld d, ixh
                            343 .endm
                            344 
                            345 ;; Macro: ld__e_ixh
                            346 ;;    Opcode for "LD e, IXH" instruction
                            347 ;; 
                            348 .macro ld__e_ixh
                            349    .dw #0x5CDD  ;; Opcode for ld e, ixh
                            350 .endm
                            351 
                            352 ;; Macro: add__ixh
                            353 ;;    Opcode for "ADD IXH" instruction
                            354 ;; 
                            355 .macro add__ixh
                            356    .dw #0x84DD  ;; Opcode for add ixh
                            357 .endm
                            358 
                            359 ;; Macro: sub__ixh
                            360 ;;    Opcode for "SUB IXH" instruction
                            361 ;; 
                            362 .macro sub__ixh
                            363    .dw #0x94DD  ;; Opcode for sub ixh
                            364 .endm
                            365 
                            366 ;; Macro: adc__ixh
                            367 ;;    Opcode for "ADC IXH" instruction
                            368 ;; 
                            369 .macro adc__ixh
                            370    .dw #0x8CDD  ;; Opcode for adc ixh
                            371 .endm
                            372 
                            373 ;; Macro: sbc__ixh
                            374 ;;    Opcode for "SBC IXH" instruction
                            375 ;; 
                            376 .macro sbc__ixh
                            377    .dw #0x9CDD  ;; Opcode for sbc ixh
                            378 .endm
                            379 
                            380 ;; Macro: and__ixh
                            381 ;;    Opcode for "AND IXH" instruction
                            382 ;; 
                            383 .macro and__ixh
                            384    .dw #0xA4DD  ;; Opcode for and ixh
ASxxxx Assembler V02.00 + NoICE + SDCC mods  (Zilog Z80 / Hitachi HD64180), page 24.
Hexadecimal [16-Bits]



                            385 .endm
                            386 
                            387 ;; Macro: or__ixh
                            388 ;;    Opcode for "OR IXH" instruction
                            389 ;; 
                            390 .macro or__ixh
                            391    .dw #0xB4DD  ;; Opcode for or ixh
                            392 .endm
                            393 
                            394 ;; Macro: xor__ixh
                            395 ;;    Opcode for "XOR IXH" instruction
                            396 ;; 
                            397 .macro xor__ixh
                            398    .dw #0xACDD  ;; Opcode for xor ixh
                            399 .endm
                            400 
                            401 ;; Macro: cp__ixh
                            402 ;;    Opcode for "CP IXH" instruction
                            403 ;; 
                            404 .macro cp__ixh
                            405    .dw #0xBCDD  ;; Opcode for cp ixh
                            406 .endm
                            407 
                            408 ;; Macro: dec__ixh
                            409 ;;    Opcode for "DEC IXH" instruction
                            410 ;; 
                            411 .macro dec__ixh
                            412    .dw #0x25DD  ;; Opcode for dec ixh
                            413 .endm
                            414 
                            415 ;; Macro: inc__ixh
                            416 ;;    Opcode for "INC IXH" instruction
                            417 ;; 
                            418 .macro inc__ixh
                            419    .dw #0x24DD  ;; Opcode for inc ixh
                            420 .endm
                            421 
                            422 ;;;;;;;;;;;;;;;;;;;;;;;;;;;;;;;;;;;;;;;;;;;;;;;;;;;;;;;;;;;;;;;;;;;;;;;;;;;;;;;;;;;;;;;;;;,
                            423 ;;;;;;;;;;;;;;;;;;;;;;;;;;;;;;;;;;;;;;;;;;;;;;;;;;;;;;;;;;;;;;;;;;;;;;;;;;;;;;;;;;;;;;;;;;,
                            424 ;; IYL Related Macros
                            425 ;;;;;;;;;;;;;;;;;;;;;;;;;;;;;;;;;;;;;;;;;;;;;;;;;;;;;;;;;;;;;;;;;;;;;;;;;;;;;;;;;;;;;;;;;;,
                            426 ;;;;;;;;;;;;;;;;;;;;;;;;;;;;;;;;;;;;;;;;;;;;;;;;;;;;;;;;;;;;;;;;;;;;;;;;;;;;;;;;;;;;;;;;;;,
                            427 
                            428 ;; Macro: ld__iyl    Value
                            429 ;;    Opcode for "LD iyl, Value" instruction
                            430 ;;  
                            431 ;; Parameters:
                            432 ;;    Value - An inmediate 8-bits value that will be loaded into iyl
                            433 ;; 
                            434 .macro ld__iyl    Value 
                            435    .db #0xFD, #0x2E, Value  ;; Opcode for ld iyl, Value
                            436 .endm
                            437 
                            438 ;; Macro: ld__iyl_a
                            439 ;;    Opcode for "LD iyl, a" instruction
ASxxxx Assembler V02.00 + NoICE + SDCC mods  (Zilog Z80 / Hitachi HD64180), page 25.
Hexadecimal [16-Bits]



                            440 ;; 
                            441 .macro ld__iyl_a
                            442    .dw #0x6FFD  ;; Opcode for ld iyl, a
                            443 .endm
                            444 
                            445 ;; Macro: ld__iyl_b
                            446 ;;    Opcode for "LD iyl, B" instruction
                            447 ;; 
                            448 .macro ld__iyl_b
                            449    .dw #0x68FD  ;; Opcode for ld iyl, b
                            450 .endm
                            451 
                            452 ;; Macro: ld__iyl_c
                            453 ;;    Opcode for "LD iyl, C" instruction
                            454 ;; 
                            455 .macro ld__iyl_c
                            456    .dw #0x69FD  ;; Opcode for ld iyl, c
                            457 .endm
                            458 
                            459 ;; Macro: ld__iyl_d
                            460 ;;    Opcode for "LD iyl, D" instruction
                            461 ;; 
                            462 .macro ld__iyl_d
                            463    .dw #0x6AFD  ;; Opcode for ld iyl, d
                            464 .endm
                            465 
                            466 ;; Macro: ld__iyl_e
                            467 ;;    Opcode for "LD iyl, E" instruction
                            468 ;; 
                            469 .macro ld__iyl_e
                            470    .dw #0x6BFD  ;; Opcode for ld iyl, e
                            471 .endm
                            472 
                            473 ;; Macro: ld__iyl_iyh
                            474 ;;    Opcode for "LD iyl, IXL" instruction
                            475 ;; 
                            476 .macro ld__iyl_iyh
                            477    .dw #0x6CFD  ;; Opcode for ld iyl, ixl
                            478 .endm
                            479 
                            480 ;; Macro: ld__a_iyl
                            481 ;;    Opcode for "LD A, iyl" instruction
                            482 ;; 
                            483 .macro ld__a_iyl
                            484    .dw #0x7DFD  ;; Opcode for ld a, iyl
                            485 .endm
                            486 
                            487 ;; Macro: ld__b_iyl
                            488 ;;    Opcode for "LD B, iyl" instruction
                            489 ;; 
                            490 .macro ld__b_iyl
                            491    .dw #0x45FD  ;; Opcode for ld b, iyl
                            492 .endm
                            493 
                            494 ;; Macro: ld__c_iyl
ASxxxx Assembler V02.00 + NoICE + SDCC mods  (Zilog Z80 / Hitachi HD64180), page 26.
Hexadecimal [16-Bits]



                            495 ;;    Opcode for "LD c, iyl" instruction
                            496 ;; 
                            497 .macro ld__c_iyl
                            498    .dw #0x4DFD  ;; Opcode for ld c, iyl
                            499 .endm
                            500 
                            501 ;; Macro: ld__d_iyl
                            502 ;;    Opcode for "LD D, iyl" instruction
                            503 ;; 
                            504 .macro ld__d_iyl
                            505    .dw #0x55FD  ;; Opcode for ld d, iyl
                            506 .endm
                            507 
                            508 ;; Macro: ld__e_iyl
                            509 ;;    Opcode for "LD e, iyl" instruction
                            510 ;; 
                            511 .macro ld__e_iyl
                            512    .dw #0x5DFD  ;; Opcode for ld e, iyl
                            513 .endm
                            514 
                            515 ;; Macro: add__iyl
                            516 ;;    Opcode for "Add iyl" instruction
                            517 ;; 
                            518 .macro add__iyl
                            519    .dw #0x85FD  ;; Opcode for add iyl
                            520 .endm
                            521 
                            522 ;; Macro: sub__iyl
                            523 ;;    Opcode for "SUB iyl" instruction
                            524 ;; 
                            525 .macro sub__iyl
                            526    .dw #0x95FD  ;; Opcode for sub iyl
                            527 .endm
                            528 
                            529 ;; Macro: adc__iyl
                            530 ;;    Opcode for "ADC iyl" instruction
                            531 ;; 
                            532 .macro adc__iyl
                            533    .dw #0x8DFD  ;; Opcode for adc iyl
                            534 .endm
                            535 
                            536 ;; Macro: sbc__iyl
                            537 ;;    Opcode for "SBC iyl" instruction
                            538 ;; 
                            539 .macro sbc__iyl
                            540    .dw #0x9DFD  ;; Opcode for sbc iyl
                            541 .endm
                            542 
                            543 ;; Macro: and__iyl
                            544 ;;    Opcode for "AND iyl" instruction
                            545 ;; 
                            546 .macro and__iyl
                            547    .dw #0xA5FD  ;; Opcode for and iyl
                            548 .endm
                            549 
ASxxxx Assembler V02.00 + NoICE + SDCC mods  (Zilog Z80 / Hitachi HD64180), page 27.
Hexadecimal [16-Bits]



                            550 ;; Macro: or__iyl
                            551 ;;    Opcode for "OR iyl" instruction
                            552 ;; 
                            553 .macro or__iyl
                            554    .dw #0xB5FD  ;; Opcode for or iyl
                            555 .endm
                            556 
                            557 ;; Macro: xor__iyl
                            558 ;;    Opcode for "XOR iyl" instruction
                            559 ;; 
                            560 .macro xor__iyl
                            561    .dw #0xADFD  ;; Opcode for xor iyl
                            562 .endm
                            563 
                            564 ;; Macro: cp__iyl
                            565 ;;    Opcode for "CP iyl" instruction
                            566 ;; 
                            567 .macro cp__iyl
                            568    .dw #0xBDFD  ;; Opcode for cp iyl
                            569 .endm
                            570 
                            571 ;; Macro: dec__iyl
                            572 ;;    Opcode for "DEC iyl" instruction
                            573 ;; 
                            574 .macro dec__iyl
                            575    .dw #0x2DFD  ;; Opcode for dec iyl
                            576 .endm
                            577 
                            578 ;; Macro: inc__iyl
                            579 ;;    Opcode for "INC iyl" instruction
                            580 ;; 
                            581 .macro inc__iyl
                            582    .dw #0x2CFD  ;; Opcode for inc iyl
                            583 .endm
                            584 
                            585 ;;;;;;;;;;;;;;;;;;;;;;;;;;;;;;;;;;;;;;;;;;;;;;;;;;;;;;;;;;;;;;;;;;;;;;;;;;;;;;;;;;;;;;;;;;,
                            586 ;;;;;;;;;;;;;;;;;;;;;;;;;;;;;;;;;;;;;;;;;;;;;;;;;;;;;;;;;;;;;;;;;;;;;;;;;;;;;;;;;;;;;;;;;;,
                            587 ;; IYH Related Macros
                            588 ;;;;;;;;;;;;;;;;;;;;;;;;;;;;;;;;;;;;;;;;;;;;;;;;;;;;;;;;;;;;;;;;;;;;;;;;;;;;;;;;;;;;;;;;;;,
                            589 ;;;;;;;;;;;;;;;;;;;;;;;;;;;;;;;;;;;;;;;;;;;;;;;;;;;;;;;;;;;;;;;;;;;;;;;;;;;;;;;;;;;;;;;;;;,
                            590 
                            591 ;; Macro: ld__iyh    Value
                            592 ;;    Opcode for "LD iyh, Value" instruction
                            593 ;;  
                            594 ;; Parameters:
                            595 ;;    Value - An inmediate 8-bits value that will be loaded into iyh
                            596 ;; 
                            597 .macro ld__iyh    Value 
                            598    .db #0xFD, #0x26, Value  ;; Opcode for ld iyh, Value
                            599 .endm
                            600 
                            601 ;; Macro: ld__iyh_a
                            602 ;;    Opcode for "LD iyh, a" instruction
                            603 ;; 
                            604 .macro ld__iyh_a
ASxxxx Assembler V02.00 + NoICE + SDCC mods  (Zilog Z80 / Hitachi HD64180), page 28.
Hexadecimal [16-Bits]



                            605    .dw #0x67FD  ;; Opcode for ld iyh, a
                            606 .endm
                            607 
                            608 ;; Macro: ld__iyh_b
                            609 ;;    Opcode for "LD iyh, B" instruction
                            610 ;; 
                            611 .macro ld__iyh_b
                            612    .dw #0x60FD  ;; Opcode for ld iyh, b
                            613 .endm
                            614 
                            615 ;; Macro: ld__iyh_c
                            616 ;;    Opcode for "LD iyh, C" instruction
                            617 ;; 
                            618 .macro ld__iyh_c
                            619    .dw #0x61FD  ;; Opcode for ld iyh, c
                            620 .endm
                            621 
                            622 ;; Macro: ld__iyh_d
                            623 ;;    Opcode for "LD iyh, D" instruction
                            624 ;; 
                            625 .macro ld__iyh_d
                            626    .dw #0x62FD  ;; Opcode for ld iyh, d
                            627 .endm
                            628 
                            629 ;; Macro: ld__iyh_e
                            630 ;;    Opcode for "LD iyh, E" instruction
                            631 ;; 
                            632 .macro ld__iyh_e
                            633    .dw #0x63FD  ;; Opcode for ld iyh, e
                            634 .endm
                            635 
                            636 ;; Macro: ld__iyh_iyl
                            637 ;;    Opcode for "LD iyh, IyL" instruction
                            638 ;; 
                            639 .macro ld__iyh_iyl
                            640    .dw #0x65FD  ;; Opcode for ld iyh, iyl
                            641 .endm
                            642 
                            643 ;; Macro: ld__a_iyh
                            644 ;;    Opcode for "LD A, iyh" instruction
                            645 ;; 
                            646 .macro ld__a_iyh
                            647    .dw #0x7CFD  ;; Opcode for ld a, iyh
                            648 .endm
                            649 
                            650 ;; Macro: ld__b_iyh
                            651 ;;    Opcode for "LD B, iyh" instruction
                            652 ;; 
                            653 .macro ld__b_iyh
                            654    .dw #0x44FD  ;; Opcode for ld b, iyh
                            655 .endm
                            656 
                            657 ;; Macro: ld__c_iyh
                            658 ;;    Opcode for "LD c, iyh" instruction
                            659 ;; 
ASxxxx Assembler V02.00 + NoICE + SDCC mods  (Zilog Z80 / Hitachi HD64180), page 29.
Hexadecimal [16-Bits]



                            660 .macro ld__c_iyh
                            661    .dw #0x4CFD  ;; Opcode for ld c, iyh
                            662 .endm
                            663 
                            664 ;; Macro: ld__d_iyh
                            665 ;;    Opcode for "LD D, iyh" instruction
                            666 ;; 
                            667 .macro ld__d_iyh
                            668    .dw #0x54FD  ;; Opcode for ld d, iyh
                            669 .endm
                            670 
                            671 ;; Macro: ld__e_iyh
                            672 ;;    Opcode for "LD e, iyh" instruction
                            673 ;; 
                            674 .macro ld__e_iyh
                            675    .dw #0x5CFD  ;; Opcode for ld e, iyh
                            676 .endm
                            677 
                            678 ;; Macro: add__iyh
                            679 ;;    Opcode for "Add iyh" instruction
                            680 ;; 
                            681 .macro add__iyh
                            682    .dw #0x84FD  ;; Opcode for add iyh
                            683 .endm
                            684 
                            685 ;; Macro: sub__iyh
                            686 ;;    Opcode for "SUB iyh" instruction
                            687 ;; 
                            688 .macro sub__iyh
                            689    .dw #0x94FD  ;; Opcode for sub iyh
                            690 .endm
                            691 
                            692 ;; Macro: adc__iyh
                            693 ;;    Opcode for "ADC iyh" instruction
                            694 ;; 
                            695 .macro adc__iyh
                            696    .dw #0x8CFD  ;; Opcode for adc iyh
                            697 .endm
                            698 
                            699 ;; Macro: sbc__iyh
                            700 ;;    Opcode for "SBC iyh" instruction
                            701 ;; 
                            702 .macro sbc__iyh
                            703    .dw #0x9CFD  ;; Opcode for sbc iyh
                            704 .endm
                            705 
                            706 ;; Macro: and__iyh
                            707 ;;    Opcode for "AND iyh" instruction
                            708 ;; 
                            709 .macro and__iyh
                            710    .dw #0xA4FD  ;; Opcode for and iyh
                            711 .endm
                            712 
                            713 ;; Macro: or__iyh
                            714 ;;    Opcode for "OR iyh" instruction
ASxxxx Assembler V02.00 + NoICE + SDCC mods  (Zilog Z80 / Hitachi HD64180), page 30.
Hexadecimal [16-Bits]



                            715 ;; 
                            716 .macro or__iyh
                            717    .dw #0xB4FD  ;; Opcode for or iyh
                            718 .endm
                            719 
                            720 ;; Macro: xor__iyh
                            721 ;;    Opcode for "XOR iyh" instruction
                            722 ;; 
                            723 .macro xor__iyh
                            724    .dw #0xACFD  ;; Opcode for xor iyh
                            725 .endm
                            726 
                            727 ;; Macro: cp__iyh
                            728 ;;    Opcode for "CP iyh" instruction
                            729 ;; 
                            730 .macro cp__iyh
                            731    .dw #0xBCFD  ;; Opcode for cp iyh
                            732 .endm
                            733 
                            734 ;; Macro: dec__iyh
                            735 ;;    Opcode for "DEC iyh" instruction
                            736 ;; 
                            737 .macro dec__iyh
                            738    .dw #0x25FD  ;; Opcode for dec iyh
                            739 .endm
                            740 
                            741 ;; Macro: inc__iyh
                            742 ;;    Opcode for "INC iyh" instruction
                            743 ;; 
                            744 .macro inc__iyh
                            745    .dw #0x24FD  ;; Opcode for inc iyh
                            746 .endm
ASxxxx Assembler V02.00 + NoICE + SDCC mods  (Zilog Z80 / Hitachi HD64180), page 31.
Hexadecimal [16-Bits]



                             23 .include "macros/cpct_pushpop.h.s"
                              1 ;;-----------------------------LICENSE NOTICE------------------------------------
                              2 ;;  This file is part of CPCtelera: An Amstrad CPC Game Engine 
                              3 ;;  Copyright (C) 2020 ronaldo / Fremos / Cheesetea / ByteRealms (@FranGallegoBR)
                              4 ;;
                              5 ;;  This program is free software: you can redistribute it and/or modify
                              6 ;;  it under the terms of the GNU Lesser General Public License as published by
                              7 ;;  the Free Software Foundation, either version 3 of the License, or
                              8 ;;  (at your option) any later version.
                              9 ;;
                             10 ;;  This program is distributed in the hope that it will be useful,
                             11 ;;  but WITHOUT ANY WARRANTY; without even the implied warranty of
                             12 ;;  MERCHANTABILITY or FITNESS FOR A PARTICULAR PURPOSE.  See the
                             13 ;;  GNU Lesser General Public License for more details.
                             14 ;;
                             15 ;;  You should have received a copy of the GNU Lesser General Public License
                             16 ;;  along with this program.  If not, see <http://www.gnu.org/licenses/>.
                             17 ;;-------------------------------------------------------------------------------
                             18 
                             19 ;;
                             20 ;; File: Push - Pop Macros
                             21 ;;
                             22 ;;    Useful macros to simplify push-pop save/restore operations
                             23 ;;
                             24 
                             25 ;;;;;;;;;;;;;;;;;;;;;;;;;;;;;;;;;;;;;;;;;;;;;;;;;;;;;;;;;;;;;;;;;;;;;;;;;;;;;;;;;;;;;;;;;
                             26 ;; Macro: cpctm_push RO, R1, R2, R3, R4, R5
                             27 ;;
                             28 ;;    Pushes any given registers (up to 6) into the stack
                             29 ;;
                             30 ;; ASM Definition:
                             31 ;;    .macro <cpctm_push> R0, R1, R2, R3, R4, R5
                             32 ;;
                             33 ;; Parameters:
                             34 ;;    R0-R5 - Any number of 16-bit pushable registers, up to 6
                             35 ;;
                             36 ;; Details:
                             37 ;;    This macro converts the list of 16-bit registers given as parameters into a list
                             38 ;; of 'push' operations to push all of them into the stack. The registers are pushed
                             39 ;; into the stack in the same order as they are given in the parameter list.
                             40 ;;    The macro accepts any number of registers up to the maximum of 6 that are 
                             41 ;; predefined as parameters. However, you may use it with 1, 2, 3, 4 or 5 registers
                             42 ;; as parameters. There is no need to give the 6 parameters: only those given will 
                             43 ;; be considered.
                             44 ;;
                             45 ;; Modified Registers: 
                             46 ;;    none
                             47 ;;
                             48 ;; Required memory:
                             49 ;;    1 byte per register given (2 if they are IX or IY)
                             50 ;;
                             51 ;; Time Measures:
                             52 ;; (start code)
                             53 ;;  Case     | microSecs(us) | CPU Cycles
                             54 ;; ------------------------------------
ASxxxx Assembler V02.00 + NoICE + SDCC mods  (Zilog Z80 / Hitachi HD64180), page 32.
Hexadecimal [16-Bits]



                             55 ;;  Per Reg  |       4       |     16
                             56 ;; ------------------------------------
                             57 ;;  Per IX/IY|       5       |     20
                             58 ;; ------------------------------------
                             59 ;; (end code)
                             60 ;;;;;;;;;;;;;;;;;;;;;;;;;;;;;;;;;;;;;;;;;;;;;;;;;;;;;;;;;;;;;;;;;;;;;;;;;;;;;;;;;;;;;;;;;
                             61 .macro cpctm_push r0, r1, r2, r3, r4, r5
                             62    .narg v
                             63    .if v
                             64    push r0
                             65    .if v-1
                             66    push r1
                             67    .if v-2
                             68    push r2
                             69    .if v-3
                             70    push r3
                             71    .if v-4
                             72    push r4
                             73    .if v-5
                             74    push r5
                             75    .else
                             76    .mexit
                             77    .endif
                             78    .else
                             79    .mexit
                             80    .endif
                             81    .else
                             82    .mexit
                             83    .endif
                             84    .else
                             85    .mexit
                             86    .endif
                             87    .else
                             88    .mexit
                             89    .endif
                             90    .else
                             91    .mexit
                             92    .endif
                             93 .endm
                             94 
                             95 
                             96 ;;;;;;;;;;;;;;;;;;;;;;;;;;;;;;;;;;;;;;;;;;;;;;;;;;;;;;;;;;;;;;;;;;;;;;;;;;;;;;;;;;;;;;;;;
                             97 ;; Macro: cpctm_pop RO, R1, R2, R3, R4, R5
                             98 ;;
                             99 ;;    Pops any given registers (up to 6) from the stack
                            100 ;;
                            101 ;; ASM Definition:
                            102 ;;    .macro <cpctm_pop> R0, R1, R2, R3, R4, R5
                            103 ;;
                            104 ;; Parameters:
                            105 ;;    R0-R5 - Any number of 16-bit pushable/popable registers, up to 6
                            106 ;;
                            107 ;; Details:
                            108 ;;    This macro converts the list of 16-bit registers given as parameters into a list
                            109 ;; of 'pop' operations to pop all of them from the stack. The registers are poped
ASxxxx Assembler V02.00 + NoICE + SDCC mods  (Zilog Z80 / Hitachi HD64180), page 33.
Hexadecimal [16-Bits]



                            110 ;; in the same order as they are given in the parameter list.
                            111 ;;    The macro accepts any number of registers up to the maximum of 6 that are 
                            112 ;; predefined as parameters. However, you may use it with 1, 2, 3, 4 or 5 registers
                            113 ;; as parameters. There is no need to give the 6 parameters: only those given will 
                            114 ;; be considered.
                            115 ;;
                            116 ;; Modified Registers: 
                            117 ;;    R0, R1, R2, R3, R4, R5 (Those given as parameters are loaded from the stack)
                            118 ;;
                            119 ;; Required memory:
                            120 ;;    1 byte per register given (2 if they are IX or IY)
                            121 ;;
                            122 ;; Time Measures:
                            123 ;; (start code)
                            124 ;;  Case     | microSecs(us) | CPU Cycles
                            125 ;; ------------------------------------
                            126 ;;  Per Reg  |       3       |     12
                            127 ;; ------------------------------------
                            128 ;;  Per IX/IY|       5       |     20
                            129 ;; ------------------------------------
                            130 ;; (end code)
                            131 ;;;;;;;;;;;;;;;;;;;;;;;;;;;;;;;;;;;;;;;;;;;;;;;;;;;;;;;;;;;;;;;;;;;;;;;;;;;;;;;;;;;;;;;;;
                            132 .macro cpctm_pop r0, r1, r2, r3, r4, r5
                            133    .narg v
                            134    .if v
                            135    pop r0
                            136    .if v-1
                            137    pop r1
                            138    .if v-2
                            139    pop r2
                            140    .if v-3
                            141    pop r3
                            142    .if v-4
                            143    pop r4
                            144    .if v-5
                            145    pop r5
                            146    .else
                            147    .mexit
                            148    .endif
                            149    .else
                            150    .mexit
                            151    .endif
                            152    .else
                            153    .mexit
                            154    .endif
                            155    .else
                            156    .mexit
                            157    .endif
                            158    .else
                            159    .mexit
                            160    .endif
                            161    .else
                            162    .mexit
                            163    .endif
                            164 .endm
ASxxxx Assembler V02.00 + NoICE + SDCC mods  (Zilog Z80 / Hitachi HD64180), page 34.
Hexadecimal [16-Bits]



                             24 
                             25 ;;//////////////////////////////////////////////////////////////////////
                             26 ;; Group: General Useful Macros
                             27 ;;//////////////////////////////////////////////////////////////////////
                             28 
                             29 ;;
                             30 ;; Macro: cpctm_produceHalts_asm
                             31 ;;
                             32 ;;   Produce a set of consecutive halt instructions in order to wait for 
                             33 ;; a given number of interrupts.
                             34 ;;
                             35 ;; C Definition:
                             36 ;;   .macro <cpctm_produceHalts_asm> *N*
                             37 ;;
                             38 ;; Input Parameters:
                             39 ;;   (_) N - Number of consecutive halts to be produced
                             40 ;;
                             41 ;; Known issues:
                             42 ;;    * *N* must be a constant expression that can evaluate to a number
                             43 ;; at compile time.
                             44 ;;    * If the code generated by this macro is executed with interrupts
                             45 ;; being disabled, your CPU will effectively hang forever.
                             46 ;;    * This macro can only be used from assembler code. For C callings
                             47 ;; use <cpctm_produceHalts> instead.
                             48 ;;
                             49 ;; Size of generated code:
                             50 ;;    * *N* bytes (1 byte each halt instruction produced)
                             51 ;;
                             52 ;; Time Measures:
                             53 ;;    * Time depends on the exact moment of execution and the status of
                             54 ;; interrupts. *N* interrupts will pass.
                             55 ;;
                             56 ;; Details:
                             57 ;;    This macro produces a set of *N* consecutive *halt* assembly 
                             58 ;; instructions. Each *halt* instruction stops de Z80 CPU until 
                             59 ;; an interrupt is received. Therefore, this waits for *N* interrupts
                             60 ;; to be produced. This can be used for waiting or synchronization 
                             61 ;; purposes.
                             62 ;;
                             63 ;;    Please, take into account that this is a macro, and not a function.
                             64 ;; Each time this macro is used in your code it will produce the requested
                             65 ;; amount of halts. That can produce more code than you effectively need.
                             66 ;; For a unique function that controls a loop of *halt* waiting use
                             67 ;; <cpct_waitHalts> instead.
                             68 ;;
                             69 ;;
                             70 .macro cpctm_produceHalts N
                             71    .rept N
                             72       halt
                             73    .endm
                             74 .endm
ASxxxx Assembler V02.00 + NoICE + SDCC mods  (Zilog Z80 / Hitachi HD64180), page 35.
Hexadecimal [16-Bits]



                             21 .include "keyboard/keyboard.h.s"
                              1 ;;-----------------------------LICENSE NOTICE------------------------------------
                              2 ;;  This file is part of CPCtelera: An Amstrad CPC Game Engine 
                              3 ;;  Copyright (C) 2017 ronaldo / Fremos / Cheesetea / ByteRealms (@FranGallegoBR)
                              4 ;;
                              5 ;;  This program is free software: you can redistribute it and/or modify
                              6 ;;  it under the terms of the GNU Lesser General Public License as published by
                              7 ;;  the Free Software Foundation, either version 3 of the License, or
                              8 ;;  (at your option) any later version.
                              9 ;;
                             10 ;;  This program is distributed in the hope that it will be useful,
                             11 ;;  but WITHOUT ANY WARRANTY; without even the implied warranty of
                             12 ;;  MERCHANTABILITY or FITNESS FOR A PARTICULAR PURPOSE.  See the
                             13 ;;  GNU Lesser General Public License for more details.
                             14 ;;
                             15 ;;  You should have received a copy of the GNU Lesser General Public License
                             16 ;;  along with this program.  If not, see <http://www.gnu.org/licenses/>.
                             17 ;;-------------------------------------------------------------------------------
                             18 .module cpct_keyboard
                             19 
                             20 ;;
                             21 ;; Constant: Key Definitions (asm)
                             22 ;;
                             23 ;;    Definitions of the KeyCodes required by <cpct_isKeyPressed> 
                             24 ;; function for assembler programs. These are 16-bit values that define 
                             25 ;; matrix line in the keyboard layout (Most Significant Byte) and bit to
                             26 ;; be tested in that matrix line status for the given key (Least Significant
                             27 ;; byte). Each matrix line in the keyboard returns a byte containing the
                             28 ;; status of 8 keys, 1 bit each.
                             29 ;;
                             30 ;; CPCtelera include file:
                             31 ;;    _keyboard/keyboard.h.s_
                             32 ;;
                             33 ;; Keycode constant names:
                             34 ;; (start code)
                             35 ;;  KeyCode | Constant        || KeyCode | Constant      || KeyCode |  Constant
                             36 ;; -------------------------------------------------------------------------------
                             37 ;;   0x0100 | Key_CursorUp    ||  0x0803 | Key_P         ||  0x4006 |  Key_B
                             38 ;;          |                 ||         |               ||     ''  |  Joy1_Fire3
                             39 ;;   0x0200 | Key_CursorRight ||  0x1003 | Key_SemiColon ||  0x8006 |  Key_V
                             40 ;;   0x0400 | Key_CursorDown  ||  0x2003 | Key_Colon     ||  0x0107 |  Key_4
                             41 ;;   0x0800 | Key_F9          ||  0x4003 | Key_Slash     ||  0x0207 |  Key_3
                             42 ;;   0x1000 | Key_F6          ||  0x8003 | Key_Dot       ||  0x0407 |  Key_E
                             43 ;;   0x2000 | Key_F3          ||  0x0104 | Key_0         ||  0x0807 |  Key_W
                             44 ;;   0x4000 | Key_Enter       ||  0x0204 | Key_9         ||  0x1007 |  Key_S
                             45 ;;   0x8000 | Key_FDot        ||  0x0404 | Key_O         ||  0x2007 |  Key_D
                             46 ;;   0x0101 | Key_CursorLeft  ||  0x0804 | Key_I         ||  0x4007 |  Key_C
                             47 ;;   0x0201 | Key_Copy        ||  0x1004 | Key_L         ||  0x8007 |  Key_X
                             48 ;;   0x0401 | Key_F7          ||  0x2004 | Key_K         ||  0x0108 |  Key_1
                             49 ;;   0x0801 | Key_F8          ||  0x4004 | Key_M         ||  0x0208 |  Key_2
                             50 ;;   0x1001 | Key_F5          ||  0x8004 | Key_Comma     ||  0x0408 |  Key_Esc
                             51 ;;   0x2001 | Key_F1          ||  0x0105 | Key_8         ||  0x0808 |  Key_Q
                             52 ;;   0x4001 | Key_F2          ||  0x0205 | Key_7         ||  0x1008 |  Key_Tab
                             53 ;;   0x8001 | Key_F0          ||  0x0405 | Key_U         ||  0x2008 |  Key_A
                             54 ;;   0x0102 | Key_Clr         ||  0x0805 | Key_Y         ||  0x4008 |  Key_CapsLock
ASxxxx Assembler V02.00 + NoICE + SDCC mods  (Zilog Z80 / Hitachi HD64180), page 36.
Hexadecimal [16-Bits]



                             55 ;;   0x0202 | Key_OpenBracket ||  0x1005 | Key_H         ||  0x8008 |  Key_Z
                             56 ;;   0x0402 | Key_Return      ||  0x2005 | Key_J         ||  0x0109 |  Joy0_Up
                             57 ;;   0x0802 | Key_CloseBracket||  0x4005 | Key_N         ||  0x0209 |  Joy0_Down
                             58 ;;   0x1002 | Key_F4          ||  0x8005 | Key_Space     ||  0x0409 |  Joy0_Left
                             59 ;;   0x2002 | Key_Shift       ||  0x0106 | Key_6         ||  0x0809 |  Joy0_Right
                             60 ;;          |                 ||     ''  | Joy1_Up       ||         |
                             61 ;;   0x4002 | Key_BackSlash   ||  0x0206 | Key_5         ||  0x1009 |  Joy0_Fire1
                             62 ;;          |                 ||     ''  | Joy1_Down     ||         |
                             63 ;;   0x8002 | Key_Control     ||  0x0406 | Key_R         ||  0x2009 |  Joy0_Fire2
                             64 ;;          |                 ||     ''  | Joy1_Left     ||         |
                             65 ;;   0x0103 | Key_Caret       ||  0x0806 | Key_T         ||  0x4009 |  Joy0_Fire3
                             66 ;;          |                 ||     ''  | Joy1 Right    ||
                             67 ;;   0x0203 | Key_Hyphen      ||  0x1006 | Key_G         ||  0x8009 |  Key_Del
                             68 ;;          |                 ||     ''  | Joy1_Fire1    ||
                             69 ;;   0x0403 | Key_At          ||  0x2006 | Key_F         ||
                             70 ;;          |                 ||     ''  | Joy1_Fire2    ||
                             71 ;; -------------------------------------------------------------------------------
                             72 ;;  Table 1. KeyCodes defined for each possible key, ordered by KeyCode
                             73 ;; (end)
                             74 ;;
                             75 
                             76 ;; Matrix Line 0x00
                     0100    77 Key_CursorUp     = #0x0100  ;; Bit 0 (01h) => | 0000 0001 |
                     0200    78 Key_CursorRight  = #0x0200  ;; Bit 1 (02h) => | 0000 0010 |
                     0400    79 Key_CursorDown   = #0x0400  ;; Bit 2 (04h) => | 0000 0100 |
                     0800    80 Key_F9           = #0x0800  ;; Bit 3 (08h) => | 0000 1000 |
                     1000    81 Key_F6           = #0x1000  ;; Bit 4 (10h) => | 0001 0000 |
                     2000    82 Key_F3           = #0x2000  ;; Bit 5 (20h) => | 0010 0000 |
                     4000    83 Key_Enter        = #0x4000  ;; Bit 6 (40h) => | 0100 0000 |
                     8000    84 Key_FDot         = #0x8000  ;; Bit 7 (80h) => | 1000 0000 |
                             85 ;; Matrix Line 0x01
                     0101    86 Key_CursorLeft   = #0x0101
                     0201    87 Key_Copy         = #0x0201
                     0401    88 Key_F7           = #0x0401
                     0801    89 Key_F8           = #0x0801
                     1001    90 Key_F5           = #0x1001
                     2001    91 Key_F1           = #0x2001
                     4001    92 Key_F2           = #0x4001
                     8001    93 Key_F0           = #0x8001
                             94 ;; Matrix Line 0x02
                     0102    95 Key_Clr          = #0x0102
                     0202    96 Key_OpenBracket  = #0x0202
                     0402    97 Key_Return       = #0x0402
                     0802    98 Key_CloseBracket = #0x0802
                     1002    99 Key_F4           = #0x1002
                     2002   100 Key_Shift        = #0x2002
                     4002   101 Key_BackSlash    = #0x4002
                     8002   102 Key_Control      = #0x8002
                            103 ;; Matrix Line 0x03
                     0103   104 Key_Caret        = #0x0103
                     0203   105 Key_Hyphen       = #0x0203
                     0403   106 Key_At           = #0x0403
                     0803   107 Key_P            = #0x0803
                     1003   108 Key_SemiColon    = #0x1003
                     2003   109 Key_Colon        = #0x2003
ASxxxx Assembler V02.00 + NoICE + SDCC mods  (Zilog Z80 / Hitachi HD64180), page 37.
Hexadecimal [16-Bits]



                     4003   110 Key_Slash        = #0x4003
                     8003   111 Key_Dot          = #0x8003
                            112 ;; Matrix Line 0x04
                     0104   113 Key_0            = #0x0104
                     0204   114 Key_9            = #0x0204
                     0404   115 Key_O            = #0x0404
                     0804   116 Key_I            = #0x0804
                     1004   117 Key_L            = #0x1004
                     2004   118 Key_K            = #0x2004
                     4004   119 Key_M            = #0x4004
                     8004   120 Key_Comma        = #0x8004
                            121 ;; Matrix Line 0x05
                     0105   122 Key_8            = #0x0105
                     0205   123 Key_7            = #0x0205
                     0405   124 Key_U            = #0x0405
                     0805   125 Key_Y            = #0x0805
                     1005   126 Key_H            = #0x1005
                     2005   127 Key_J            = #0x2005
                     4005   128 Key_N            = #0x4005
                     8005   129 Key_Space        = #0x8005
                            130 ;; Matrix Line 0x06
                     0106   131 Key_6            = #0x0106
                     0106   132 Joy1_Up          = #0x0106
                     0206   133 Key_5            = #0x0206
                     0206   134 Joy1_Down        = #0x0206
                     0406   135 Key_R            = #0x0406
                     0406   136 Joy1_Left        = #0x0406
                     0806   137 Key_T            = #0x0806
                     0806   138 Joy1_Right       = #0x0806
                     1006   139 Key_G            = #0x1006
                     1006   140 Joy1_Fire1       = #0x1006
                     2006   141 Key_F            = #0x2006
                     2006   142 Joy1_Fire2       = #0x2006
                     4006   143 Key_B            = #0x4006
                     4006   144 Joy1_Fire3       = #0x4006
                     8006   145 Key_V            = #0x8006
                            146 ;; Matrix Line 0x07
                     0107   147 Key_4            = #0x0107
                     0207   148 Key_3            = #0x0207
                     0407   149 Key_E            = #0x0407
                     0807   150 Key_W            = #0x0807
                     1007   151 Key_S            = #0x1007
                     2007   152 Key_D            = #0x2007
                     4007   153 Key_C            = #0x4007
                     8007   154 Key_X            = #0x8007
                            155 ;; Matrix Line 0x08
                     0108   156 Key_1            = #0x0108
                     0208   157 Key_2            = #0x0208
                     0408   158 Key_Esc          = #0x0408
                     0808   159 Key_Q            = #0x0808
                     1008   160 Key_Tab          = #0x1008
                     2008   161 Key_A            = #0x2008
                     4008   162 Key_CapsLock     = #0x4008
                     8008   163 Key_Z            = #0x8008
                            164 ;; Matrix Line 0x09
ASxxxx Assembler V02.00 + NoICE + SDCC mods  (Zilog Z80 / Hitachi HD64180), page 38.
Hexadecimal [16-Bits]



                     0109   165 Joy0_Up          = #0x0109
                     0209   166 Joy0_Down        = #0x0209
                     0409   167 Joy0_Left        = #0x0409
                     0809   168 Joy0_Right       = #0x0809
                     1009   169 Joy0_Fire1       = #0x1009
                     2009   170 Joy0_Fire2       = #0x2009
                     4009   171 Joy0_Fire3       = #0x4009
                     8009   172 Key_Del          = #0x8009
ASxxxx Assembler V02.00 + NoICE + SDCC mods  (Zilog Z80 / Hitachi HD64180), page 39.
Hexadecimal [16-Bits]



                             22 .include "video/videomode.h.s"
                              1 ;;-----------------------------LICENSE NOTICE------------------------------------
                              2 ;;  This file is part of CPCtelera: An Amstrad CPC Game Engine
                              3 ;;  Copyright (C) 2017 ronaldo / Fremos / Cheesetea / ByteRealms (@FranGallegoBR)
                              4 ;;
                              5 ;;  This program is free software: you can redistribute it and/or modify
                              6 ;;  it under the terms of the GNU Lesser General Public License as published by
                              7 ;;  the Free Software Foundation, either version 3 of the License, or
                              8 ;;  (at your option) any later version.
                              9 ;;
                             10 ;;  This program is distributed in the hope that it will be useful,
                             11 ;;  but WITHOUT ANY WARRANTY; without even the implied warranty of
                             12 ;;  MERCHANTABILITY or FITNESS FOR A PARTICULAR PURPOSE.  See the
                             13 ;;  GNU Lesser General Public License for more details.
                             14 ;;
                             15 ;;  You should have received a copy of the GNU Lesser General Public License
                             16 ;;  along with this program.  If not, see <http://www.gnu.org/licenses/>.
                             17 ;;-------------------------------------------------------------------------------
                             18 .module cpct_video
                             19    
                             20 ;;
                             21 ;; Includes
                             22 ;;
ASxxxx Assembler V02.00 + NoICE + SDCC mods  (Zilog Z80 / Hitachi HD64180), page 40.
Hexadecimal [16-Bits]



                             23 .include "video/video_macros.h.s"
                              1 ;;-----------------------------LICENSE NOTICE------------------------------------
                              2 ;;  This file is part of CPCtelera: An Amstrad CPC Game Engine
                              3 ;;  Copyright (C) 2017 ronaldo / Fremos / Cheesetea / ByteRealms (@FranGallegoBR)
                              4 ;;
                              5 ;;  This program is free software: you can redistribute it and/or modify
                              6 ;;  it under the terms of the GNU Lesser General Public License as published by
                              7 ;;  the Free Software Foundation, either version 3 of the License, or
                              8 ;;  (at your option) any later version.
                              9 ;;
                             10 ;;  This program is distributed in the hope that it will be useful,
                             11 ;;  but WITHOUT ANY WARRANTY; without even the implied warranty of
                             12 ;;  MERCHANTABILITY or FITNESS FOR A PARTICULAR PURPOSE.  See the
                             13 ;;  GNU Lesser General Public License for more details.
                             14 ;;
                             15 ;;  You should have received a copy of the GNU Lesser General Public License
                             16 ;;  along with this program.  If not, see <http://www.gnu.org/licenses/>.
                             17 ;;-------------------------------------------------------------------------------
                             18 
                             19 ;;//////////////////////////////////////////////////////////////////////
                             20 ;;//////////////////////////////////////////////////////////////////////
                             21 ;; File: Macros (asm)
                             22 ;;//////////////////////////////////////////////////////////////////////
                             23 ;;//////////////////////////////////////////////////////////////////////
                             24 
                             25 ;;//////////////////////////////////////////////////////////////////////
                             26 ;; Group: Video memory manipulation
                             27 ;;//////////////////////////////////////////////////////////////////////
                             28 
                             29 ;;
                             30 ;; Constant: CPCT_VMEM_START_ASM
                             31 ;;
                             32 ;;    The address where screen video memory starts by default in the Amstrad CPC.
                             33 ;;
                             34 ;;    This address is exactly 0xC000, and this macro represents this number but
                             35 ;; automatically converted to <u8>* (Pointer to unsigned byte). You can use this
                             36 ;; macro for any function requiring the start of video memory, like 
                             37 ;; <cpct_getScreenPtr>.
                             38 ;;
                     C000    39 CPCT_VMEM_START_ASM = 0xC000
                             40 
                             41 ;;
                             42 ;; Constants: Video Memory Pages
                             43 ;;
                             44 ;; Useful constants defining some typical Video Memory Pages to be used as 
                             45 ;; parameters for <cpct_setVideoMemoryPage>
                             46 ;;
                             47 ;; cpct_pageCO - Video Memory Page 0xC0 (0xC0)
                             48 ;; cpct_page8O - Video Memory Page 0x80 (0x80)
                             49 ;; cpct_page4O - Video Memory Page 0x40 (0x40)
                             50 ;; cpct_page0O - Video Memory Page 0x00 (0x00)
                             51 ;;
                     0030    52 cpct_pageC0_asm = 0x30
                     0020    53 cpct_page80_asm = 0x20
                     0010    54 cpct_page40_asm = 0x10
ASxxxx Assembler V02.00 + NoICE + SDCC mods  (Zilog Z80 / Hitachi HD64180), page 41.
Hexadecimal [16-Bits]



                     0000    55 cpct_page00_asm = 0x00
                             56 
                             57 ;;
                             58 ;; Macro: cpctm_memPage6_asm
                             59 ;;
                             60 ;;    Macro that encodes a video memory page in the 6 Least Significant bits (LSb)
                             61 ;; of a byte, required as parameter for <cpct_setVideoMemoryPage>. It loads resulting
                             62 ;; value into a given 8-bits register.
                             63 ;;
                             64 ;; ASM Definition:
                             65 ;; .macro <cpct_memPage6_asm> *REG8*, *PAGE*
                             66 ;;
                             67 ;; Parameters (1 byte):
                             68 ;; (__) REG8 - 8bits register where result will be loaded
                             69 ;; (1B) PAGE - Video memory page wanted 
                             70 ;;
                             71 ;; Known issues:
                             72 ;;   * This macro can only be used from assembler code. It is not accessible from 
                             73 ;; C scope. For C programs, please refer to <cpct_memPage6>
                             74 ;;   * This macro will work *only* with constant values, as its value needs to
                             75 ;; be calculated in compilation time. If fed with variable values, it will give 
                             76 ;; an assembler error.
                             77 ;;
                             78 ;; Destroyed Registers:
                             79 ;;    REG8
                             80 ;;
                             81 ;; Size of generated code:
                             82 ;;    2 bytes 
                             83 ;;
                             84 ;; Time Measures:
                             85 ;;    * 2 microseconds
                             86 ;;    * 8 CPU Cycles
                             87 ;;
                             88 ;; Details:
                             89 ;;  This is just a macro that shifts *PAGE* 2 bits to the right, to leave it
                             90 ;; with just 6 significant bits. For more information, check functions
                             91 ;; <cpct_setVideoMemoryPage> and <cpct_setVideoMemoryOffset>.
                             92 ;;
                             93 .macro cpctm_memPage6_asm REG8, PAGE 
                             94    ld REG8, #PAGE / 4      ;; [2] REG8 = PAGE/4
                             95 .endm
                             96 
                             97 ;;
                             98 ;; Macro: cpctm_screenPtr_asm
                             99 ;;
                            100 ;;    Macro that calculates the video memory location (byte pointer) of a 
                            101 ;; given pair of coordinates (*X*, *Y*). Value resulting from calculation 
                            102 ;; will be loaded into a 16-bits register.
                            103 ;;
                            104 ;; ASM Definition:
                            105 ;;    .macro <cpctm_screenPtr_asm> *REG16*, *VMEM*, *X*, *Y*
                            106 ;;
                            107 ;; Parameters:
                            108 ;;    (__) REG16 - 16-bits register where the resulting value will be loaded
                            109 ;;    (2B) VMEM  - Start of video memory buffer where (*X*, *Y*) coordinates will be calculated
ASxxxx Assembler V02.00 + NoICE + SDCC mods  (Zilog Z80 / Hitachi HD64180), page 42.
Hexadecimal [16-Bits]



                            110 ;;    (1B) X     - X Coordinate of the video memory location *in bytes* (*BEWARE! NOT in pixels!*)
                            111 ;;    (1B) Y     - Y Coordinate of the video memory location in pixels / bytes (they are same amount)
                            112 ;;
                            113 ;; Parameter Restrictions:
                            114 ;;    * *REG16* has to be a 16-bits register that can perform ld REG16, #value.
                            115 ;;    * *VMEM* will normally be the start of the video memory buffer where you want to 
                            116 ;; draw something. It could theoretically be any 16-bits value. 
                            117 ;;    * *X* must be in the range [0-79] for normal screen sizes (modes 0,1,2). Screen is
                            118 ;; always 80 bytes wide in these modes and this function is byte-aligned, so you have to 
                            119 ;; give it a byte coordinate (*NOT a pixel one!*).
                            120 ;;    * *Y* must be in the range [0-199] for normal screen sizes (modes 0,1,2). Screen is 
                            121 ;; always 200 pixels high in these modes. Pixels and bytes always coincide in vertical
                            122 ;; resolution, so this coordinate is the same in bytes that in pixels.
                            123 ;;    * If you give incorrect values to this function, the returned pointer could
                            124 ;; point anywhere in memory. This function will not cause any damage by itself, 
                            125 ;; but you may destroy important parts of your memory if you use its result to 
                            126 ;; write to memory, and you gave incorrect parameters by mistake. Take always
                            127 ;; care.
                            128 ;;
                            129 ;; Known issues:
                            130 ;;   * This macro can only be used from assembler code. It is not accessible from 
                            131 ;; C scope. For C programs, please refer to <cpct_getScreenPtr>
                            132 ;;   * This macro will work *only* with constant values, as calculations need to be 
                            133 ;; performed at assembler time.
                            134 ;;
                            135 ;; Destroyed Registers:
                            136 ;;    REG16
                            137 ;;
                            138 ;; Size of generated code:
                            139 ;;    3 bytes 
                            140 ;;
                            141 ;; Time Measures:
                            142 ;;    * 3 microseconds
                            143 ;;    * 12 CPU Cycles
                            144 ;;
                            145 ;; Details:
                            146 ;;    This macro does the same calculation than the function <cpct_getScreenPtr>. However,
                            147 ;; as it is a macro, if all 3 parameters (*VMEM*, *X*, *Y*) are constants, the calculation
                            148 ;; will be done at compile-time. This will free the binary from code or data, just putting in
                            149 ;; the result of this calculation (2 bytes with the resulting address). It is highly 
                            150 ;; recommended to use this macro instead of the function <cpct_getScreenPtr> when values
                            151 ;; involved are all constant. 
                            152 ;;
                            153 ;; Recommendations:
                            154 ;;    All constant values - Use this macro <cpctm_screenPtr_asm>
                            155 ;;    Any variable value  - Use the function <cpct_getScreenPtr>
                            156 ;;
                            157 .macro cpctm_screenPtr_asm REG16, VMEM, X, Y 
                            158    ld REG16, #VMEM + 80 * (Y / 8) + 2048 * (Y & 7) + X   ;; [3] REG16 = screenPtr
                            159 .endm
                            160 
                            161 ;;
                            162 ;; Macro: cpctm_setCRTCReg
                            163 ;;
                            164 ;;    Macro that sets a new value for a given CRTC register.
ASxxxx Assembler V02.00 + NoICE + SDCC mods  (Zilog Z80 / Hitachi HD64180), page 43.
Hexadecimal [16-Bits]



                            165 ;;
                            166 ;; ASM Definition:
                            167 ;;    .macro <cpctm_setCRTCReg> *HEXREG*, *HEXVAL*
                            168 ;;
                            169 ;; Parameters:
                            170 ;;    (1B) HEXREG - New value to be set for the register (in hexadecimal)
                            171 ;;    (1B) HEXVAL - Number of the register to be set (in hexadecimal)
                            172 ;;
                            173 ;; Parameter Restrictions:
                            174 ;;    * *HEXREG* has to be an hexadecimal value from 00 to 1F
                            175 ;;    * *HEXVAL* has to be an hexadecimal value. Its valid range will depend
                            176 ;;          upon the selected register that will be modified. 
                            177 ;;
                            178 ;; Known issues:
                            179 ;;   * This macro can *only* be used from assembler code. It is not accessible from 
                            180 ;; C scope. 
                            181 ;;   * This macro can only be used with *constant values*. As given values are 
                            182 ;; concatenated with a number, they must also be hexadecimal numbers. If a 
                            183 ;; register or other value is given, this macro will not work.
                            184 ;;   * Using values out of range have unpredicted behaviour and can even 
                            185 ;; potentially cause damage to real Amstrad CPC monitors. Please, use with care.
                            186 ;;
                            187 ;; Destroyed Registers:
                            188 ;;    BC
                            189 ;;
                            190 ;; Size of generated code:
                            191 ;;    10 bytes 
                            192 ;;
                            193 ;; Time Measures:
                            194 ;;    * 14 microseconds
                            195 ;;    * 56 CPU Cycles
                            196 ;;
                            197 ;; Details:
                            198 ;;    This macro expands to two CRTC commands: Register selection and Register setting.
                            199 ;; It selects the register given as first parameter, then sets its new value to 
                            200 ;; that given as second parameter. Both given parameters must be of exactly 1 byte
                            201 ;; in size and the have to be provided in hexadecimal. This is due to the way
                            202 ;; that macro expansion and concatenation works. Given values will be concatenated
                            203 ;; with another 8-bit hexadecimal value to form a unique 16-bits hexadecimal value.
                            204 ;; Therefore, any parameter given will always be considered hexadecimal.
                            205 ;;
                            206 .macro cpctm_setCRTCReg_asm HEXREG, HEXVAL
                            207    ld    bc, #0xBC'HEXREG  ;; [3] B=0xBC CRTC Select Register, C=register number to be selected
                            208    out  (c), c             ;; [4] Select register
                            209    ld    bc, #0xBD'HEXVAL  ;; [3] B=0xBD CRTC Set Register, C=Value to be set
                            210    out  (c), c             ;; [4] Set the value
                            211 .endm
                            212 
                            213 ;;//////////////////////////////////////////////////////////////////////
                            214 ;; Group: Setting the border
                            215 ;;//////////////////////////////////////////////////////////////////////
                            216 
                            217 ;;
                            218 ;; Macro: cpctm_setBorder_asm
                            219 ;;
ASxxxx Assembler V02.00 + NoICE + SDCC mods  (Zilog Z80 / Hitachi HD64180), page 44.
Hexadecimal [16-Bits]



                            220 ;;   Changes the colour of the screen border.
                            221 ;;
                            222 ;; ASM Definition:
                            223 ;;   .macro <cpctm_setBorder_asm> HWC 
                            224 ;;
                            225 ;; Input Parameters (1 Byte):
                            226 ;;   (1B) HWC - Hardware colour value for the screen border in *hexadecimal [00-1B]*.
                            227 ;;
                            228 ;; Known issues:
                            229 ;;   * *Beware!* *HWC* colour value must be given in *hexadecimal*, as it is
                            230 ;; substituted in place, and must be in the range [00-1B].
                            231 ;;   * This macro can only be used from assembler code. It is not accessible from 
                            232 ;; C scope. For C programs, please refer to <cpct_setBorder>
                            233 ;;   * This macro will work *only* with constant values, as calculations need to be 
                            234 ;; performed at assembler time.
                            235 ;;
                            236 ;; Destroyed Registers:
                            237 ;;    AF, B, HL
                            238 ;;
                            239 ;; Size of generated code:
                            240 ;;    * 16 bytes 
                            241 ;;     6b - generated code
                            242 ;;    10b - cpct_setPALColour_asm code
                            243 ;;
                            244 ;; Time Measures:
                            245 ;;    * 28 microseconds
                            246 ;;    * 112 CPU Cycles
                            247 ;;
                            248 ;; Details:
                            249 ;;   This is not a real function, but an assembler macro. Beware of using it along
                            250 ;; with complex expressions or calculations, as it may expand in non-desired
                            251 ;; ways.
                            252 ;;
                            253 ;;   For more information, check the real function <cpct_setPALColour>, which
                            254 ;; is called when using <cpctm_setBorder_asm> (It is called using 16 as *pen*
                            255 ;; argument, which identifies the border).
                            256 ;;
                            257 .macro cpctm_setBorder_asm HWC
                            258    .radix h
                            259    cpctm_setBorder_raw_asm \HWC ;; [28] Macro that does the job, but requires a number value to be passed
                            260    .radix d
                            261 .endm
                            262 .macro cpctm_setBorder_raw_asm HWC
                            263    .globl cpct_setPALColour_asm
                            264    ld   hl, #0x'HWC'10         ;; [3]  H=Hardware value of desired colour, L=Border INK (16)
                            265    call cpct_setPALColour_asm  ;; [25] Set Palette colour of the border
                            266 .endm
                            267 
                            268 ;;//////////////////////////////////////////////////////////////////////
                            269 ;; Group: Screen clearing
                            270 ;;//////////////////////////////////////////////////////////////////////
                            271 
                            272 ;;
                            273 ;; Macro: cpctm_clearScreen_asm
                            274 ;;
ASxxxx Assembler V02.00 + NoICE + SDCC mods  (Zilog Z80 / Hitachi HD64180), page 45.
Hexadecimal [16-Bits]



                            275 ;;    Macro to simplify clearing the screen.
                            276 ;;
                            277 ;; ASM Definition:
                            278 ;;   .macro <cpct_clearScreen_asm> COL
                            279 ;;
                            280 ;; Input Parameters (1 byte):
                            281 ;;   (1B) COL - Colour pattern to be used for screen clearing. 
                            282 ;;
                            283 ;; Parameters:
                            284 ;;    *COL* - Any 8-bits value or the A register are valid. Typically, a 0x00 is used 
                            285 ;; to fill up all the screen with 0's (firmware colour 0). However, you may use it in 
                            286 ;; combination with <cpct_px2byteM0>, <cpct_px2byteM1> or a manually created colour pattern.
                            287 ;;
                            288 ;; Known issues:
                            289 ;;   * This macro can only be used from assembler code. It is not accessible from 
                            290 ;; C scope. For C programs, please refer to <cpct_clearScreen>
                            291 ;;
                            292 ;; Details:
                            293 ;;   Fills up all the standard screen (range [0xC000-0xFFFF]) with *COL* byte, the colour 
                            294 ;; pattern given.
                            295 ;;
                            296 ;; Destroyed Registers:
                            297 ;;    BC, DE, HL
                            298 ;;
                            299 ;; Size of generated code:
                            300 ;;    13 bytes 
                            301 ;;
                            302 ;; Time Measures:
                            303 ;;    98309 microseconds (*4.924 VSYNCs* on a 50Hz display).
                            304 ;;    393236 CPU Cycles 
                            305 ;;
                            306 .macro cpctm_clearScreen_asm COL
                            307    ld    hl, #0xC000    ;; [3] HL Points to Start of Video Memory
                            308    ld    de, #0xC001    ;; [3] DE Points to the next byte
                            309    ld    bc, #0x4000    ;; [3] BC = 16384 bytes to be copied
                            310    ld   (hl), #COL      ;; [3] First Byte = given Colour
                            311    ldir                 ;; [98297] Perform the copy
                            312 .endm
ASxxxx Assembler V02.00 + NoICE + SDCC mods  (Zilog Z80 / Hitachi HD64180), page 46.
Hexadecimal [16-Bits]



                             24 .include "video/colours.h.s"
                              1 ;;-----------------------------LICENSE NOTICE------------------------------------
                              2 ;;  This file is part of CPCtelera: An Amstrad CPC Game Engine
                              3 ;;  Copyright (C) 2017 ronaldo / Fremos / Cheesetea / ByteRealms (@FranGallegoBR)
                              4 ;;
                              5 ;;  This program is free software: you can redistribute it and/or modify
                              6 ;;  it under the terms of the GNU Lesser General Public License as published by
                              7 ;;  the Free Software Foundation, either version 3 of the License, or
                              8 ;;  (at your option) any later version.
                              9 ;;
                             10 ;;  This program is distributed in the hope that it will be useful,
                             11 ;;  but WITHOUT ANY WARRANTY; without even the implied warranty of
                             12 ;;  MERCHANTABILITY or FITNESS FOR A PARTICULAR PURPOSE.  See the
                             13 ;;  GNU Lesser General Public License for more details.
                             14 ;;
                             15 ;;  You should have received a copy of the GNU Lesser General Public License
                             16 ;;  along with this program.  If not, see <http://www.gnu.org/licenses/>.
                             17 ;;-------------------------------------------------------------------------------
                             18 
                             19 ;;//////////////////////////////////////////////////////////////////////
                             20 ;;//////////////////////////////////////////////////////////////////////
                             21 ;; File: Colours (asm)
                             22 ;;//////////////////////////////////////////////////////////////////////
                             23 ;;//////////////////////////////////////////////////////////////////////
                             24 ;;
                             25 ;;    Constants and utilities to manage the 27 colours from
                             26 ;; the CPC Palette comfortably in assembler.
                             27 ;;
                             28 ;;
                             29 
                             30 ;; Constant: Firmware colour values
                             31 ;;
                             32 ;;    Enumerates all 27 firmware colours for assembler programs
                             33 ;;
                             34 ;; Values:
                             35 ;; (start code)
                             36 ;;   [=================================================]
                             37 ;;   | Identifier        | Val| Identifier        | Val|
                             38 ;;   |-------------------------------------------------|
                             39 ;;   | FW_BLACK          |  0 | FW_BLUE           |  1 |
                             40 ;;   | FW_BRIGHT_BLUE    |  2 | FW_RED            |  3 |
                             41 ;;   | FW_MAGENTA        |  4 | FW_MAUVE          |  5 |
                             42 ;;   | FW_BRIGHT_RED     |  6 | FW_PURPLE         |  7 |
                             43 ;;   | FW_BRIGHT_MAGENTA |  8 | FW_GREEN          |  9 |
                             44 ;;   | FW_CYAN           | 10 | FW_SKY_BLUE       | 11 |
                             45 ;;   | FW_YELLOW         | 12 | FW_WHITE          | 13 |
                             46 ;;   | FW_PASTEL_BLUE    | 14 | FW_ORANGE         | 15 |
                             47 ;;   | FW_PINK           | 16 | FW_PASTEL_MAGENTA | 17 |
                             48 ;;   | FW_BRIGHT_GREEN   | 18 | FW_SEA_GREEN      | 19 |
                             49 ;;   | FW_BRIGHT_CYAN    | 20 | FW_LIME           | 21 |
                             50 ;;   | FW_PASTEL_GREEN   | 22 | FW_PASTEL_CYAN    | 23 |
                             51 ;;   | FW_BRIGHT_YELLOW  | 24 | FW_PASTEL_YELLOW  | 25 |
                             52 ;;   | FW_BRIGHT_WHITE   | 26 |                   |    |
                             53 ;;   [=================================================]
                             54 ;; (end code)
ASxxxx Assembler V02.00 + NoICE + SDCC mods  (Zilog Z80 / Hitachi HD64180), page 47.
Hexadecimal [16-Bits]



                             55 
                     0000    56 FW_BLACK          =  0
                     0001    57 FW_BLUE           =  1
                     0002    58 FW_BRIGHT_BLUE    =  2
                     0003    59 FW_RED            =  3
                     0004    60 FW_MAGENTA        =  4
                     0005    61 FW_MAUVE          =  5
                     0006    62 FW_BRIGHT_RED     =  6
                     0007    63 FW_PURPLE         =  7
                     0008    64 FW_BRIGHT_MAGENTA =  8
                     0009    65 FW_GREEN          =  9
                     000A    66 FW_CYAN           = 10
                     000B    67 FW_SKY_BLUE       = 11
                     000C    68 FW_YELLOW         = 12
                     000D    69 FW_WHITE          = 13
                     000E    70 FW_PASTEL_BLUE    = 14
                     000F    71 FW_ORANGE         = 15
                     0010    72 FW_PINK           = 16
                     0011    73 FW_PASTEL_MAGENTA = 17
                     0012    74 FW_BRIGHT_GREEN   = 18
                     0013    75 FW_SEA_GREEN      = 19
                     0014    76 FW_BRIGHT_CYAN    = 20
                     0015    77 FW_LIME           = 21
                     0016    78 FW_PASTEL_GREEN   = 22
                     0017    79 FW_PASTEL_CYAN    = 23
                     0018    80 FW_BRIGHT_YELLOW  = 24
                     0019    81 FW_PASTEL_YELLOW  = 25
                     001A    82 FW_BRIGHT_WHITE   = 26
                             83 
                             84 ;; Constant: Hardware colour values
                             85 ;;
                             86 ;;    Enumerates all 27 hardware colours for assembler programs
                             87 ;;
                             88 ;; Values:
                             89 ;; (start code)
                             90 ;;   [=====================================================]
                             91 ;;   | Identifier        | Value| Identifier        | Value|
                             92 ;;   |-----------------------------------------------------|
                             93 ;;   | HW_BLACK          | 0x14 | HW_BLUE           | 0x04 |
                             94 ;;   | HW_BRIGHT_BLUE    | 0x15 | HW_RED            | 0x1C |
                             95 ;;   | HW_MAGENTA        | 0x18 | HW_MAUVE          | 0x1D |
                             96 ;;   | HW_BRIGHT_RED     | 0x0C | HW_PURPLE         | 0x05 |
                             97 ;;   | HW_BRIGHT_MAGENTA | 0x0D | HW_GREEN          | 0x16 |
                             98 ;;   | HW_CYAN           | 0x06 | HW_SKY_BLUE       | 0x17 |
                             99 ;;   | HW_YELLOW         | 0x1E | HW_WHITE          | 0x00 |
                            100 ;;   | HW_PASTEL_BLUE    | 0x1F | HW_ORANGE         | 0x0E |
                            101 ;;   | HW_PINK           | 0x07 | HW_PASTEL_MAGENTA | 0x0F |
                            102 ;;   | HW_BRIGHT_GREEN   | 0x12 | HW_SEA_GREEN      | 0x02 |
                            103 ;;   | HW_BRIGHT_CYAN    | 0x13 | HW_LIME           | 0x1A |
                            104 ;;   | HW_PASTEL_GREEN   | 0x19 | HW_PASTEL_CYAN    | 0x1B |
                            105 ;;   | HW_BRIGHT_YELLOW  | 0x0A | HW_PASTEL_YELLOW  | 0x03 |
                            106 ;;   | HW_BRIGHT_WHITE   | 0x0B |                   |      |
                            107 ;;   [=====================================================]
                            108 ;; (end code)
                            109 ;;
ASxxxx Assembler V02.00 + NoICE + SDCC mods  (Zilog Z80 / Hitachi HD64180), page 48.
Hexadecimal [16-Bits]



                     0014   110 HW_BLACK          = 0x14
                     0004   111 HW_BLUE           = 0x04
                     0015   112 HW_BRIGHT_BLUE    = 0x15
                     001C   113 HW_RED            = 0x1C
                     0018   114 HW_MAGENTA        = 0x18
                     001D   115 HW_MAUVE          = 0x1D
                     000C   116 HW_BRIGHT_RED     = 0x0C
                     0005   117 HW_PURPLE         = 0x05
                     000D   118 HW_BRIGHT_MAGENTA = 0x0D
                     0016   119 HW_GREEN          = 0x16
                     0006   120 HW_CYAN           = 0x06
                     0017   121 HW_SKY_BLUE       = 0x17
                     001E   122 HW_YELLOW         = 0x1E
                     0000   123 HW_WHITE          = 0x00
                     001F   124 HW_PASTEL_BLUE    = 0x1F
                     000E   125 HW_ORANGE         = 0x0E
                     0007   126 HW_PINK           = 0x07
                     000F   127 HW_PASTEL_MAGENTA = 0x0F
                     0012   128 HW_BRIGHT_GREEN   = 0x12
                     0002   129 HW_SEA_GREEN      = 0x02
                     0013   130 HW_BRIGHT_CYAN    = 0x13
                     001A   131 HW_LIME           = 0x1A
                     0019   132 HW_PASTEL_GREEN   = 0x19
                     001B   133 HW_PASTEL_CYAN    = 0x1B
                     000A   134 HW_BRIGHT_YELLOW  = 0x0A
                     0003   135 HW_PASTEL_YELLOW  = 0x03
                     000B   136 HW_BRIGHT_WHITE   = 0x0B
ASxxxx Assembler V02.00 + NoICE + SDCC mods  (Zilog Z80 / Hitachi HD64180), page 49.
Hexadecimal [16-Bits]



                             25 
                             26 ;;
                             27 ;; Constant values
                             28 ;;
                     7F00    29 GA_port        = 0x7F00  ;; 16-bit Port of the Gate Array (for the use with BC register)
                     007F    30 GA_port_byte   = 0x7F    ;; 8-bit Port of the Gate Array
                     0000    31 PAL_PENR       = 0x00    ;; Command to select a PEN register in the PAL chip
                     0040    32 PAL_INKR       = 0x40    ;; Command to set the INK of a previously selected PEN register in the PAL chip
                     00F5    33 PPI_PORT_B     = 0xF5    ;; Port B of the PPI, used to read Vsync/Jumpers/PrinterBusy/CasIn/Exp information
                     00BC    34 CRTC_SELECTREG = 0xBC    ;; CRTC Port and command "Select Register"
                     00BD    35 CRTC_SETVAL    = 0xBD    ;; CRTC Port and command "Set Value"
ASxxxx Assembler V02.00 + NoICE + SDCC mods  (Zilog Z80 / Hitachi HD64180), page 50.
Hexadecimal [16-Bits]



                             23 .include "sprites/sprites.h.s"
                              1 ;;-----------------------------LICENSE NOTICE------------------------------------
                              2 ;;  This file is part of CPCtelera: An Amstrad CPC Game Engine
                              3 ;;  Copyright (C) 2018 ronaldo / Fremos / Cheesetea / ByteRealms (@FranGallegoBR)
                              4 ;;
                              5 ;;  This program is free software: you can redistribute it and/or modify
                              6 ;;  it under the terms of the GNU Lesser General Public License as published by
                              7 ;;  the Free Software Foundation, either version 3 of the License, or
                              8 ;;  (at your option) any later version.
                              9 ;;
                             10 ;;  This program is distributed in the hope that it will be useful,
                             11 ;;  but WITHOUT ANY WARRANTY; without even the implied warranty of
                             12 ;;  MERCHANTABILITY or FITNESS FOR A PARTICULAR PURPOSE.  See the
                             13 ;;  GNU Lesser General Public License for more details.
                             14 ;;
                             15 ;;  You should have received a copy of the GNU Lesser General Public License
                             16 ;;  along with this program.  If not, see <http://www.gnu.org/licenses/>.
                             17 ;;-------------------------------------------------------------------------------
                             18 
                             19 ;;#####################################################################
                             20 ;;### MODULE: Sprites
                             21 ;;#####################################################################
                             22 ;;### Functions, macros and definitions used for managing sprites
                             23 ;;### in assembler code
                             24 ;;#####################################################################
                             25 
ASxxxx Assembler V02.00 + NoICE + SDCC mods  (Zilog Z80 / Hitachi HD64180), page 51.
Hexadecimal [16-Bits]



                             26 .include "sprites/flipping/flipping_macros.h.s"
                              1 ;;-----------------------------LICENSE NOTICE------------------------------------
                              2 ;;  This file is part of CPCtelera: An Amstrad CPC Game Engine
                              3 ;;  Copyright (C) 2018 ronaldo / Fremos / Cheesetea / ByteRealms (@FranGallegoBR)
                              4 ;;
                              5 ;;  This program is free software: you can redistribute it and/or modify
                              6 ;;  it under the terms of the GNU Lesser General Public License as published by
                              7 ;;  the Free Software Foundation, either version 3 of the License, or
                              8 ;;  (at your option) any later version.
                              9 ;;
                             10 ;;  This program is distributed in the hope that it will be useful,
                             11 ;;  but WITHOUT ANY WARRANTY; without even the implied warranty of
                             12 ;;  MERCHANTABILITY or FITNESS FOR A PARTICULAR PURPOSE.  See the
                             13 ;;  GNU Lesser General Public License for more details.
                             14 ;;
                             15 ;;  You should have received a copy of the GNU Lesser General Public License
                             16 ;;  along with this program.  If not, see <http://www.gnu.org/licenses/>.
                             17 ;;-------------------------------------------------------------------------------
                             18 
                             19 ;;#####################################################################
                             20 ;;### MODULE: Sprites
                             21 ;;### SUBMODULE: flipping.macros
                             22 ;;#####################################################################
                             23 ;;### Macros used to speed up calculations required for to assist
                             24 ;;### flipping functions. Assembler version.
                             25 ;;#####################################################################
                             26 
                             27 ;;
                             28 ;; Macro: cpctm_ld_spbloff
                             29 ;;
                             30 ;;    Macro that calculates the offset to add to a sprite pointer to point 
                             31 ;; to its bottom left pixel.
                             32 ;;
                             33 ;; ASM Definition:
                             34 ;;    .macro <cpctm_ld_spbloff> *REG*, *W*, *H*
                             35 ;;
                             36 ;; Acronym stands for:
                             37 ;;    ld_sbloff = Load Sprite Bottom Left Offset
                             38 ;;
                             39 ;; Parameters:
                             40 ;;    (1-2B) REG - Register that will load the resulting offset (8 or 16 bits)
                             41 ;;    (1B) W     - Width of the sprite in *bytes*
                             42 ;;    (1B) H     - Height of the sprite in pixels
                             43 ;;
                             44 ;; Parameter Restrictions:
                             45 ;;    *REG* - Must be a valid 8/16 bits register that can be immediately loaded
                             46 ;; using ld REG, #immediate.
                             47 ;;    *W*   - Must be an immediate value representing the width of the sprite 
                             48 ;; in *bytes* (Beware! Not in pixels). For sprites having interlaced mask, you 
                             49 ;; may input 2 times the width of the sprite for appropriate results.
                             50 ;;    *H*   - Must be an immediate value representing the height of the sprite 
                             51 ;; in pixels.
                             52 ;;
                             53 ;; Returns:
                             54 ;; (start code)
ASxxxx Assembler V02.00 + NoICE + SDCC mods  (Zilog Z80 / Hitachi HD64180), page 52.
Hexadecimal [16-Bits]



                             55 ;;    REG = W * (H - 1) ;; Register loaded with the offset
                             56 ;; (end code)
                             57 ;;
                             58 ;; Details:
                             59 ;;    This macro calculates the offset of the initial byte of the last row 
                             60 ;; of a given sprite (i.e. its bottom-left byte), with respect to its first
                             61 ;; byte (top-left corner). This value can easily be added to any sprite 
                             62 ;; pointer to get a pointer to the bottom-left byte. This pointer is required
                             63 ;; byte many flipping functions (like <cpct_vflipSprite>). Values for width
                             64 ;; and height of the sprite must be constant immediate values. Otherwise, this
                             65 ;; macro will generate incorrect code that will fail to compile. 
                             66 ;;    The macro calculates *W* * (*H*-1) at compile-time and loads it into
                             67 ;; the given register. Please, take into account that the macro does no check
                             68 ;; about the size of the resulting values. If multiplication results in a value
                             69 ;; greater than 255, you will need to load it into a 16-bit register. You must
                             70 ;; take care of the expected size of the offset value.
                             71 ;;
                             72 ;; Known issues:
                             73 ;;    * This is a assembler macro. It cannot be called or used from C code.
                             74 ;;
                             75 .macro cpctm_ld_spbloff REG, W, H
                             76    ld    REG, #W * (H-1)
                             77 .endm
ASxxxx Assembler V02.00 + NoICE + SDCC mods  (Zilog Z80 / Hitachi HD64180), page 53.
Hexadecimal [16-Bits]



                             19 .include "cpctelera_functions.h.s"
                              1 ;;----------------------------------LICENSE NOTICE-----------------------------------------------------
                              2 ;;Slimy is a challenging videogame made for Amstrad CPC
                              3 ;;    Copyright (C) 2020  Maria del Rosario Fernandez Garcia // David Llopis Romero // Jessica Hernandez Gomez
                              4 ;;
                              5 ;;    This program is free software: you can redistribute it and/or modify
                              6 ;;    it under the terms of the GNU General Public License as published by
                              7 ;;    the Free Software Foundation, either version 3 of the License, or
                              8 ;;    (at your option) any later version.
                              9 ;;
                             10 ;;    This program is distributed in the hope that it will be useful,
                             11 ;;    but WITHOUT ANY WARRANTY; without even the implied warranty of
                             12 ;;    MERCHANTABILITY or FITNESS FOR A PARTICULAR PURPOSE.  See the
                             13 ;;    GNU General Public License for more details.
                             14 ;;
                             15 ;;    You should have received a copy of the GNU General Public License
                             16 ;;    along with this program.  If not, see <https://www.gnu.org/licenses/>.
                             17 ;;------------------------------------------------------------------------------------------------------
                             18 .globl cpct_disableFirmware_asm
                             19 .globl cpct_getScreenPtr_asm
                             20 .globl cpct_drawSolidBox_asm
                             21 .globl cpct_scanKeyboard_asm
                             22 .globl cpct_waitVSYNC_asm
                             23 .globl cpct_isKeyPressed_asm
                             24 .globl cpct_setVideoMode_asm
                             25 .globl cpct_setDrawCharM0_asm
                             26 .globl cpct_drawStringM0_asm
                             27 .globl cpct_drawSprite_asm
                             28 .globl cpct_setPalette_asm
                             29 .globl cpct_setPALColour_asm
                             30 .globl cpct_zx7b_decrunch_s_asm
                             31 .globl cpct_akp_musicInit_asm
                             32 .globl cpct_akp_musicPlay_asm
ASxxxx Assembler V02.00 + NoICE + SDCC mods  (Zilog Z80 / Hitachi HD64180), page 54.
Hexadecimal [16-Bits]



                             20 .include "sys/render.h.s"
                              1 ;;----------------------------------LICENSE NOTICE-----------------------------------------------------
                              2 ;;Slimy is a challenging videogame made for Amstrad CPC
                              3 ;;    Copyright (C) 2020  Maria del Rosario Fernandez Garcia // David Llopis Romero // Jessica Hernandez Gomez
                              4 ;;
                              5 ;;    This program is free software: you can redistribute it and/or modify
                              6 ;;    it under the terms of the GNU General Public License as published by
                              7 ;;    the Free Software Foundation, either version 3 of the License, or
                              8 ;;    (at your option) any later version.
                              9 ;;
                             10 ;;    This program is distributed in the hope that it will be useful,
                             11 ;;    but WITHOUT ANY WARRANTY; without even the implied warranty of
                             12 ;;    MERCHANTABILITY or FITNESS FOR A PARTICULAR PURPOSE.  See the
                             13 ;;    GNU General Public License for more details.
                             14 ;;
                             15 ;;    You should have received a copy of the GNU General Public License
                             16 ;;    along with this program.  If not, see <https://www.gnu.org/licenses/>.
                             17 ;;------------------------------------------------------------------------------------------------------
                             18 .globl sys_render_init
                             19 .globl _hero_pal
                             20 .globl sys_render_update_hero
                             21 .globl sys_render_clear_hero
                             22 .globl sys_render_update_obstacle
                             23 .globl sys_render_clear_obstacle
                             24 .globl sys_render_clear_screen
                             25 .globl sys_render_draw
                             26 .globl sys_render_update_bginit123
                             27 .globl sys_render_update_bginit456
                             28 .globl sys_render_update_bginit789
                             29 .globl sys_render_update_menu
                             30 .globl sys_render_update_win
                             31 .globl _wave_sp_0
                             32 .globl _wave_sp_1
                             33 .globl _wave_sp_2
                             34 .globl _wave_sp_4
                             35 .globl _wave_sp_5
                             36 .globl _fireball_sp_0
                             37 .globl _fireball_sp_1
                             38 .globl _bigfire_sp_0
                             39 .globl _bigfire_sp_1
                             40 .globl _bigfire_sp_2
                             41 .globl _ghost_sp_0
                             42 .globl _ghost_sp_1
                             43 .globl _salicornio_sp_0
                             44 .globl _salicornio_sp_1
                             45 .globl sys_render_draw_stlvl1
                             46 .globl sys_render_draw_stlvl2
                             47 .globl sys_render_draw_stlvl3
                             48 .globl sys_render_draw_stlvl4
                             49 .globl sys_render_draw_stlvl5
                             50 .globl sys_render_draw_stlvl6
                             51 .globl sys_render_draw_stlvl7
                             52 .globl sys_render_draw_stlvl8
                             53 .globl sys_render_draw_stlvl9
                             54 .globl sys_render_draw_stlvl10
ASxxxx Assembler V02.00 + NoICE + SDCC mods  (Zilog Z80 / Hitachi HD64180), page 55.
Hexadecimal [16-Bits]



                             55 .globl sys_render_draw_stlvl11
                             56 .globl sys_render_draw_stlvl12
                             57 .globl sys_render_draw_stlvl13
                             58 .globl sys_render_draw_stlvl14
                             59 .globl sys_render_draw_stlvl15
                             60 .globl sys_render_draw_stlvl16
                             61 .globl sys_render_draw_stlvl17
                             62 .globl sys_render_draw_stlvl18
                             63 .globl sys_render_draw_stlvl19
                             64 .globl sys_render_draw_stlvl20
                             65 .globl sys_render_draw_stlvl21
                             66 .globl sys_render_draw_stlvl22
                             67 .globl sys_render_draw_stlvl23
                             68 .globl sys_render_draw_stlvl24
                             69 .globl sys_render_draw_stlvl25
                             70 .globl sys_render_draw_stlvl26
                             71 .globl sys_render_draw_stlvl27
                             72 .globl sys_render_draw_stlvl28
                             73 .globl sys_render_draw_stlvl29
                             74 .globl sys_render_draw_stlvl30
ASxxxx Assembler V02.00 + NoICE + SDCC mods  (Zilog Z80 / Hitachi HD64180), page 56.
Hexadecimal [16-Bits]



                             21 .include "hero.h.s"
                              1 ;;----------------------------------LICENSE NOTICE-----------------------------------------------------
                              2 ;;Slimy is a challenging videogame made for Amstrad CPC
                              3 ;;    Copyright (C) 2020  Maria del Rosario Fernandez Garcia // David Llopis Romero // Jessica Hernandez Gomez
                              4 ;;
                              5 ;;    This program is free software: you can redistribute it and/or modify
                              6 ;;    it under the terms of the GNU General Public License as published by
                              7 ;;    the Free Software Foundation, either version 3 of the License, or
                              8 ;;    (at your option) any later version.
                              9 ;;
                             10 ;;    This program is distributed in the hope that it will be useful,
                             11 ;;    but WITHOUT ANY WARRANTY; without even the implied warranty of
                             12 ;;    MERCHANTABILITY or FITNESS FOR A PARTICULAR PURPOSE.  See the
                             13 ;;    GNU General Public License for more details.
                             14 ;;
                             15 ;;    You should have received a copy of the GNU General Public License
                             16 ;;    along with this program.  If not, see <https://www.gnu.org/licenses/>.
                             17 ;;------------------------------------------------------------------------------------------------------
                             18 .globl hero_init
                             19 .globl hero_getIXPtr
                             20 .globl hero_getIYPtr
                             21 .globl keyboard_inputs
                             22 .globl hero_update
                             23 .globl hero_restart
                             24 .globl _hero_sp_00
                             25 .globl _hero_sp_01
                             26 .globl _hero_sp_02
                             27 .globl _hero_sp_03
                             28 .globl _hero_sp_04
                             29 .globl _hero_sp_05
                             30 .globl _hero_sp_06
                             31 .globl _hero_sp_07
                             32 .globl _hero_sp_08
                             33 
                             34 
                             35 ;; _salto indica si estoy en un salto o no 0xFF indica que NO estoy saltando
                             36 ;; _posicion indica si estoy en la parte de arriba o en la parte de abajo 0x0A indica que estoy arriba y 0x0B abajo
                             37 .macro DefineEntity _name, _x, _y, _w, _h, _vx, _vy, _color, _salto, _posicion, _animacion
                             38 _name::
                             39     .db _x
                             40     .db _y
                             41     .db _w
                             42     .db _h
                             43     .db _vx
                             44     .db _vy     ;;Marcador para saber si debemos destruir la entidad o no
                             45     .db _color
                             46     .db _salto
                             47     .db _posicion
                             48     .db _animacion
                             49 .endm
                             50 
                     0000    51 h_x = 0
                     0001    52 h_y = 1
                     0002    53 h_w = 2
                     0003    54 h_h = 3
ASxxxx Assembler V02.00 + NoICE + SDCC mods  (Zilog Z80 / Hitachi HD64180), page 57.
Hexadecimal [16-Bits]



                     0004    55 h_vx = 4
                     0005    56 h_vy = 5
                     0006    57 h_color = 6
                     0007    58 h_salto = 7
                     0008    59 h_posicion = 8
                     0009    60 h_animacion = 9
ASxxxx Assembler V02.00 + NoICE + SDCC mods  (Zilog Z80 / Hitachi HD64180), page 58.
Hexadecimal [16-Bits]



                             22 .include "obstacles.h.s"
                              1 ;;----------------------------------LICENSE NOTICE-----------------------------------------------------
                              2 ;;Slimy is a challenging videogame made for Amstrad CPC
                              3 ;;    Copyright (C) 2020  Maria del Rosario Fernandez Garcia // David Llopis Romero // Jessica Hernandez Gomez
                              4 ;;
                              5 ;;    This program is free software: you can redistribute it and/or modify
                              6 ;;    it under the terms of the GNU General Public License as published by
                              7 ;;    the Free Software Foundation, either version 3 of the License, or
                              8 ;;    (at your option) any later version.
                              9 ;;
                             10 ;;    This program is distributed in the hope that it will be useful,
                             11 ;;    but WITHOUT ANY WARRANTY; without even the implied warranty of
                             12 ;;    MERCHANTABILITY or FITNESS FOR A PARTICULAR PURPOSE.  See the
                             13 ;;    GNU General Public License for more details.
                             14 ;;
                             15 ;;    You should have received a copy of the GNU General Public License
                             16 ;;    along with this program.  If not, see <https://www.gnu.org/licenses/>.
                             17 ;;------------------------------------------------------------------------------------------------------
                             18 .globl obstacle_update
                             19 .globl obstacle_init
                             20 .globl obstacle_getIYPtr
                             21 .globl obstacle_getIXPtr
                             22 .globl _obstacle_sp_0
                             23 .globl _obstacle_sp_1
                             24 .globl obstacle_size
                             25 .globl max_obstacles
                             26 .globl obstacle_array_size
                             27 .globl generar1entidad
                             28 .globl generar1entidadWave
                             29 .globl obs_doForAll
                             30 .globl get_lastObsPtr
                             31 .globl set_y_last_obstacle
                             32 .globl set_x_last_obstacle
                             33 .globl set_y_wave
                             34 .globl obs_getObstacleArray_IX
                             35 .globl obs_getObstacleArray_IX
                             36 .globl obs_getNumObstacles_A
                             37 .globl obs_destroy
                             38 .globl num_obstacles_marcados
                             39 .globl last_obs_ptr
                             40 .globl obstacle_array
                             41 .globl obs_destroy_all
                             42 .globl generar1entidadGhost
                             43 .globl set_y_ghost
                             44 .globl position_update
                             45 .globl generar1entidadBig
                             46 .globl set_y_bigobstacle
                             47 ;;.globl obstacle_restart
                             48 ;;.globl set_y_obstacles
                             49 ;;.globl obs_destroy_all
                             50 ;;;;;;;;;;;;;;;;;;;;;;
                             51 ;;                  ;;
                             52 ;;    CONSTANTES    ;;
                             53 ;;                  ;;
                             54 ;;;;;;;;;;;;;;;;;;;;;;
ASxxxx Assembler V02.00 + NoICE + SDCC mods  (Zilog Z80 / Hitachi HD64180), page 59.
Hexadecimal [16-Bits]



                     000A    55 obstacle_size  == 10
                     0014    56 max_obstacles == 20
                     00C8    57 obstacle_array_size == obstacle_size*max_obstacles
ASxxxx Assembler V02.00 + NoICE + SDCC mods  (Zilog Z80 / Hitachi HD64180), page 60.
Hexadecimal [16-Bits]



                             23 .include "sprites/background_z.h.s"
                              1 ;; File 'src/sprites/background_z.h.s' generated using cpct_pack
                              2 ;; Compresor used:   zx7b
                              3 ;; Files compressed: [ 'src/sprites/BgInit.bin' ]
                              4 ;; Uncompressed:     16384 bytes
                              5 ;; Compressed:       1389 bytes
                              6 ;; Space saved:      14995 bytes
                              7 ;;
                              8 
                              9 ;; Declaration of the compressed array and
                             10 ;; the address of the latest byte of the compressed array (for unpacking purposes)
                             11 .globl _background_z
                             12 .globl _background_z_end
                             13 
                             14 ;; Compressed and uncompressed sizes
                     056D    15 _background_z_size_z == 1389
                     4000    16 _background_z_size   == 16384
                             17 
                             18 
ASxxxx Assembler V02.00 + NoICE + SDCC mods  (Zilog Z80 / Hitachi HD64180), page 61.
Hexadecimal [16-Bits]



                             24 .include "sprites/background_hallow_z.h.s"
                              1 ;; File 'src/sprites/background_hallow_z.h.s' generated using cpct_pack
                              2 ;; Compresor used:   zx7b
                              3 ;; Files compressed: [ 'src/sprites/BgHallow.bin' ]
                              4 ;; Uncompressed:     16384 bytes
                              5 ;; Compressed:       1134 bytes
                              6 ;; Space saved:      15250 bytes
                              7 ;;
                              8 
                              9 ;; Declaration of the compressed array and
                             10 ;; the address of the latest byte of the compressed array (for unpacking purposes)
                             11 .globl _background_hallow_z
                             12 .globl _background_hallow_z_end
                             13 
                             14 ;; Compressed and uncompressed sizes
                     046E    15 _background_hallow_z_size_z == 1134
                     4000    16 _background_hallow_z_size   == 16384
                             17 
                             18 
ASxxxx Assembler V02.00 + NoICE + SDCC mods  (Zilog Z80 / Hitachi HD64180), page 62.
Hexadecimal [16-Bits]



                             25 .include "sprites/background_prince_z.h.s"
                              1 ;; File 'src/sprites/background_prince_z.h.s' generated using cpct_pack
                              2 ;; Compresor used:   zx7b
                              3 ;; Files compressed: [ 'src/sprites/BgPrince.bin' ]
                              4 ;; Uncompressed:     16384 bytes
                              5 ;; Compressed:       1738 bytes
                              6 ;; Space saved:      14646 bytes
                              7 ;;
                              8 
                              9 ;; Declaration of the compressed array and
                             10 ;; the address of the latest byte of the compressed array (for unpacking purposes)
                             11 .globl _background_prince_z
                             12 .globl _background_prince_z_end
                             13 
                             14 ;; Compressed and uncompressed sizes
                     06CA    15 _background_prince_z_size_z == 1738
                     4000    16 _background_prince_z_size   == 16384
                             17 
                             18 
ASxxxx Assembler V02.00 + NoICE + SDCC mods  (Zilog Z80 / Hitachi HD64180), page 63.
Hexadecimal [16-Bits]



                             26 .include "sprites/menu_z.h.s"
                              1 ;; File 'src/sprites/menu_z.h.s' generated using cpct_pack
                              2 ;; Compresor used:   zx7b
                              3 ;; Files compressed: [ 'src/sprites/MenuInit.bin' ]
                              4 ;; Uncompressed:     16384 bytes
                              5 ;; Compressed:       2088 bytes
                              6 ;; Space saved:      14296 bytes
                              7 ;;
                              8 
                              9 ;; Declaration of the compressed array and
                             10 ;; the address of the latest byte of the compressed array (for unpacking purposes)
                             11 .globl _menu_z
                             12 .globl _menu_z_end
                             13 
                             14 ;; Compressed and uncompressed sizes
                     0828    15 _menu_z_size_z == 2088
                     4000    16 _menu_z_size   == 16384
                             17 
                             18 
ASxxxx Assembler V02.00 + NoICE + SDCC mods  (Zilog Z80 / Hitachi HD64180), page 64.
Hexadecimal [16-Bits]



                             27 .include "sprites/win_z.h.s"
                              1 ;; File 'src/sprites/win_z.h.s' generated using cpct_pack
                              2 ;; Compresor used:   zx7b
                              3 ;; Files compressed: [ 'src/sprites/Win.bin' ]
                              4 ;; Uncompressed:     16384 bytes
                              5 ;; Compressed:       409 bytes
                              6 ;; Space saved:      15975 bytes
                              7 ;;
                              8 
                              9 ;; Declaration of the compressed array and
                             10 ;; the address of the latest byte of the compressed array (for unpacking purposes)
                             11 .globl _win_z
                             12 .globl _win_z_end
                             13 
                             14 ;; Compressed and uncompressed sizes
                     0199    15 _win_z_size_z == 409
                     4000    16 _win_z_size   == 16384
                             17 
                             18 
ASxxxx Assembler V02.00 + NoICE + SDCC mods  (Zilog Z80 / Hitachi HD64180), page 65.
Hexadecimal [16-Bits]



                             28 .globl level
                             29 .globl animation_seconds
                             30 
   0000 4C 65 76 65 6C 20    31 str_lvl1: .asciz "Level 1"
        31 00
   0008 4C 65 76 65 6C 20    32 str_lvl2: .asciz "Level 2"
        32 00
   0010 4C 65 76 65 6C 20    33 str_lvl3: .asciz "Level 3"
        33 00
   0018 4C 65 76 65 6C 20    34 str_lvl4: .asciz "Level 4"
        34 00
   0020 4C 65 76 65 6C 20    35 str_lvl5: .asciz "Level 5"
        35 00
   0028 4C 65 76 65 6C 20    36 str_lvl6: .asciz "Level 6"
        36 00
   0030 4C 65 76 65 6C 20    37 str_lvl7: .asciz "Level 7"
        37 00
   0038 4C 65 76 65 6C 20    38 str_lvl8: .asciz "Level 8"
        38 00
   0040 4C 65 76 65 6C 20    39 str_lvl9: .asciz "Level 9"
        39 00
   0048 4C 65 76 65 6C 20    40 str_lvl10: .asciz "Level 10"
        31 30 00
   0051 4C 65 76 65 6C 20    41 str_lvl11: .asciz "Level 11"
        31 31 00
   005A 4C 65 76 65 6C 20    42 str_lvl12: .asciz "Level 12"
        31 32 00
   0063 4C 65 76 65 6C 20    43 str_lvl13: .asciz "Level 13"
        31 33 00
   006C 4C 65 76 65 6C 20    44 str_lvl14: .asciz "Level 14"
        31 34 00
   0075 4C 65 76 65 6C 20    45 str_lvl15: .asciz "Level 15"
        31 35 00
   007E 4C 65 76 65 6C 20    46 str_lvl16: .asciz "Level 16"
        31 36 00
   0087 4C 65 76 65 6C 20    47 str_lvl17: .asciz "Level 17"
        31 37 00
   0090 4C 65 76 65 6C 20    48 str_lvl18: .asciz "Level 18"
        31 38 00
   0099 4C 65 76 65 6C 20    49 str_lvl19: .asciz "Level 19"
        31 39 00
   00A2 4C 65 76 65 6C 20    50 str_lvl20: .asciz "Level 20"
        32 30 00
   00AB 4C 65 76 65 6C 20    51 str_lvl21: .asciz "Level 21"
        32 31 00
   00B4 4C 65 76 65 6C 20    52 str_lvl22: .asciz "Level 22"
        32 32 00
   00BD 4C 65 76 65 6C 20    53 str_lvl23: .asciz "Level 23"
        32 33 00
   00C6 4C 65 76 65 6C 20    54 str_lvl24: .asciz "Level 24"
        32 34 00
   00CF 4C 65 76 65 6C 20    55 str_lvl25: .asciz "Level 25"
        32 35 00
   00D8 4C 65 76 65 6C 20    56 str_lvl26: .asciz "Level 26"
        32 36 00
ASxxxx Assembler V02.00 + NoICE + SDCC mods  (Zilog Z80 / Hitachi HD64180), page 66.
Hexadecimal [16-Bits]



   00E1 4C 65 76 65 6C 20    57 str_lvl27: .asciz "Level 27"
        32 37 00
   00EA 4C 65 76 65 6C 20    58 str_lvl28: .asciz "Level 28"
        32 38 00
   00F3 4C 65 76 65 6C 20    59 str_lvl29: .asciz "Level 29"
        32 39 00
   00FC 4C 65 76 65 6C 20    60 str_lvl30: .asciz "Level 30"
        33 30 00
                             61 ;;;;;;;;;;;;;;;;;;;;;;;;;;;;;;;;;;;;;;;;;;;;;;;;;;;;;;;;;;;;;;;;;;;;;;;;;;;;;;;;;;;;;;;;;;;;
                             62 ;;
                             63 ;;  INICIALIZAMOS EL RENDER, PONEMOS EL MODO DE VIDEO A 0
                             64 ;;  INICIALIZAMOS LA PALETA
                             65 ;;
                             66 ;;  DESTROYED REGISTER VALUES -> AF, BC, HL, DE
                             67 ;;;;;;;;;;;;;;;;;;;;;;;;;;;;;;;;;;;;;;;;;;;;;;;;;;;;;;;;;;;;;;;;;;;;;;;;;;;;;;;;;;;;;;;;;;;;
   0105                      68 sys_render_init::
   0105 0E 00         [ 7]   69     ld      c, #0x00
   0107 CD 00 00      [17]   70     call   cpct_setVideoMode_asm        
   010A 21 00 00      [10]   71     ld     hl, #_hero_pal
   010D 11 10 00      [10]   72     ld     de, #16
   0110 CD 00 00      [17]   73     call   cpct_setPalette_asm          
   0113 21 10 14      [10]   74     ld	hl, #0x1410
   0116 CD 00 00      [17]   75     call cpct_setPALColour_asm          
                             76 
   0119 C9            [10]   77     ret
                             78 
                             79 ;;;;;;;;;;;;;;;;;;;;;;;;;;;;;;;;;;;;;;;;;;;;;;;;;;;;;;;;;;;;;;;;;;;;;;;;;;;;;;;;;;;;;;;;;;;;
                             80 ;;
                             81 ;;      Pinta al heroe
                             82 ;;      DESTROYED REGISTER VALUES AF, BC, DE, HL, IX
                             83 ;; 
                             84 ;;;;;;;;;;;;;;;;;;;;;;;;;;;;;;;;;;;;;;;;;;;;;;;;;;;;;;;;;;;;;;;;;;;;;;;;;;;;;;;;;;;;;;;;;;;;
                             85 
                             86 ;;------------76--------------      PRIMER CUADRANTE
                             87 ;;------------81--------------      SEGUNDO CUADRANTE
                             88 ;;------------8C--------------      SEGUNDO CUADRANTE
                             89 ;;------------95--------------      TERCER CUADRANTE
                             90 ;;------------A2--------------      TERCER CUADRANTE
                             91 ;;------------AB--------------      CUARTO CUADRANTE
                             92 ;;------------B4--------------      CUARTO CUADRANTE
                             93 
   011A                      94 sys_render_update_hero::
   011A CD 00 00      [17]   95     call hero_getIXPtr
   011D 21 00 00      [10]   96     ld      hl, #_hero_sp_00
   0120 DD 7E 01      [19]   97     ld       a, h_y(ix)
   0123 D6 A2         [ 7]   98     sub     #0xA2
   0125 38 02         [12]   99     jr      c, tres           ;;Si hay carry, esta por encima
   0127 30 1D         [12]  100     jr      nc, dibujar        ;;Si no, esta en el cuarto cuadrante
   0129                     101 tres:
   0129 21 00 00      [10]  102     ld      hl, #_hero_sp_02
   012C DD 7E 01      [19]  103     ld       a, h_y(ix)
   012F D6 8C         [ 7]  104     sub     #0x8C
   0131 38 02         [12]  105     jr      c, dos          ;;Si hay carry, esta por encima
   0133 30 11         [12]  106     jr      nc, dibujar      ;;Si no hay carry, esta en el tercer cuadrante y pintamos
   0135                     107 dos:
ASxxxx Assembler V02.00 + NoICE + SDCC mods  (Zilog Z80 / Hitachi HD64180), page 67.
Hexadecimal [16-Bits]



   0135 21 00 00      [10]  108     ld      hl, #_hero_sp_03
   0138 DD 7E 01      [19]  109     ld       a, h_y(ix)
   013B FE 76         [ 7]  110     cp     #0x76
   013D 28 02         [12]  111     jr      z, uno          ;;Si es 76, esta arriba
   013F 30 05         [12]  112     jr      nc, dibujar      ;;Si no hay carry, esta en el segundo cuadrante y pintamos
   0141                     113 uno:
   0141 21 00 00      [10]  114     ld      hl, #_hero_sp_04
   0144 18 00         [12]  115     jr      dibujar
   0146                     116 dibujar:
   0146 CD 4E 03      [17]  117     call sys_render_draw
   0149 C9            [10]  118 ret
                            119 
                            120 ;;;;;;;;;;;;;;;;;;;;;;;;;;;;;;;;;;;;;;;;;;;;;;;;;;;;;;;;;;;;;;;;;;;;;;;;;;;;;;;;;;;;;;;;;;;;
                            121 ;;
                            122 ;;  BORRAMOS AL HEROE
                            123 ;;  DESTROYED REGISTER VALUES -> IX, HL, DE, BC, AF
                            124 ;; 
                            125 ;;;;;;;;;;;;;;;;;;;;;;;;;;;;;;;;;;;;;;;;;;;;;;;;;;;;;;;;;;;;;;;;;;;;;;;;;;;;;;;;;;;;;;;;;;;
   014A                     126 sys_render_clear_hero::
   014A CD 00 00      [17]  127     call hero_getIXPtr
   014D 21 00 00      [10]  128     ld      hl, #_hero_sp_08
   0150 CD 4E 03      [17]  129     call sys_render_draw
   0153 C9            [10]  130 ret
                            131 
                            132 ;;;;;;;;;;;;;;;;;;;;;;;;;;;;;;;;;;;;;;;;;;;;;;;;;;;;;;;;;;;;;;;;;;;;;;;;;;;;;;;;;;;;;;;;;;;;
                            133 ;;
                            134 ;;  PINTAMOS LOS ENEMIGOS CORRESPONDIENTES DEPENDIENDO DEL NIVEL, SI TIENEN ANIMACION TAMBIEN LO CONTROLAMOS
                            135 ;;  DESTROYED REGISTER VALUES -> HL, DE, BC, AF
                            136 ;; 
                            137 ;;;;;;;;;;;;;;;;;;;;;;;;;;;;;;;;;;;;;;;;;;;;;;;;;;;;;;;;;;;;;;;;;;;;;;;;;;;;;;;;;;;;;;;;;;;
   0154                     138 sys_render_update_obstacle::
                            139     ;;Levels 1-10 -> Blue obstacle and wave
   0154 3A 00 00      [13]  140     ld      a, (level)
   0157 FE 01         [ 7]  141     cp      #01
   0159 CA 44 02      [10]  142     jp      z, lv123
   015C 3A 00 00      [13]  143     ld      a, (level)
   015F FE 02         [ 7]  144     cp      #02
   0161 CA 44 02      [10]  145     jp      z, lv123
   0164 3A 00 00      [13]  146     ld      a, (level)
   0167 FE 03         [ 7]  147     cp      #03
   0169 CA 44 02      [10]  148     jp      z, lv123
   016C 3A 00 00      [13]  149     ld      a, (level)
   016F FE 04         [ 7]  150     cp      #04
   0171 CA 44 02      [10]  151     jp      z, lv123
   0174 3A 00 00      [13]  152     ld      a, (level)
   0177 FE 05         [ 7]  153     cp      #05
   0179 CA 44 02      [10]  154     jp      z, lv123
   017C 3A 00 00      [13]  155     ld      a, (level)
   017F FE 06         [ 7]  156     cp      #06
   0181 CA 44 02      [10]  157     jp      z, lv123
   0184 3A 00 00      [13]  158     ld      a, (level)
   0187 FE 07         [ 7]  159     cp      #07
   0189 CA 44 02      [10]  160     jp      z, lv123
   018C 3A 00 00      [13]  161     ld      a, (level)
   018F FE 08         [ 7]  162     cp      #08
ASxxxx Assembler V02.00 + NoICE + SDCC mods  (Zilog Z80 / Hitachi HD64180), page 68.
Hexadecimal [16-Bits]



   0191 CA 44 02      [10]  163     jp      z, lv123
   0194 3A 00 00      [13]  164     ld      a, (level)
   0197 FE 09         [ 7]  165     cp      #09
   0199 CA 44 02      [10]  166     jp      z, lv123
   019C 3A 00 00      [13]  167     ld      a, (level)
   019F FE 0A         [ 7]  168     cp      #10
   01A1 CA 44 02      [10]  169     jp      z, lv123
                            170 
                            171     ;;Levels 4, 5, 6 -> Ghost and green obstacle
   01A4 3A 00 00      [13]  172     ld      a, (level)
   01A7 FE 0B         [ 7]  173     cp      #11
   01A9 CA 68 02      [10]  174     jp      z, lv456
   01AC 3A 00 00      [13]  175     ld      a, (level)
   01AF FE 0C         [ 7]  176     cp      #12
   01B1 CA 68 02      [10]  177     jp      z, lv456
   01B4 3A 00 00      [13]  178     ld      a, (level)
   01B7 FE 0D         [ 7]  179     cp      #13
   01B9 CA 68 02      [10]  180     jp      z, lv456
   01BC 3A 00 00      [13]  181     ld      a, (level)
   01BF FE 0E         [ 7]  182     cp      #14
   01C1 CA 68 02      [10]  183     jp      z, lv456
   01C4 3A 00 00      [13]  184     ld      a, (level)
   01C7 FE 0F         [ 7]  185     cp      #15
   01C9 CA 68 02      [10]  186     jp      z, lv456
   01CC 3A 00 00      [13]  187     ld      a, (level)
   01CF FE 10         [ 7]  188     cp      #16
   01D1 CA 68 02      [10]  189     jp      z, lv456
   01D4 3A 00 00      [13]  190     ld      a, (level)
   01D7 FE 11         [ 7]  191     cp      #17
   01D9 CA 68 02      [10]  192     jp      z, lv456
   01DC 3A 00 00      [13]  193     ld      a, (level)
   01DF FE 12         [ 7]  194     cp      #18
   01E1 CA 68 02      [10]  195     jp      z, lv456
   01E4 3A 00 00      [13]  196     ld      a, (level)
   01E7 FE 13         [ 7]  197     cp      #19
   01E9 CA 68 02      [10]  198     jp      z, lv456
   01EC 3A 00 00      [13]  199     ld      a, (level)
   01EF FE 14         [ 7]  200     cp      #20
   01F1 CA 68 02      [10]  201     jp      z, lv456
                            202 
                            203     ;;Levels 21-30: -> FireBall, sandwave, bigfire and salicornio
   01F4 3A 00 00      [13]  204     ld      a, (level)
   01F7 FE 15         [ 7]  205     cp      #21
   01F9 CA 9C 02      [10]  206     jp      z, lv789
   01FC 3A 00 00      [13]  207     ld      a, (level)
   01FF FE 16         [ 7]  208     cp      #22
   0201 CA 9C 02      [10]  209     jp      z, lv789
   0204 3A 00 00      [13]  210     ld      a, (level)
   0207 FE 17         [ 7]  211     cp      #23
   0209 CA 9C 02      [10]  212     jp      z, lv789
   020C 3A 00 00      [13]  213     ld      a, (level)
   020F FE 18         [ 7]  214     cp      #24
   0211 CA 9C 02      [10]  215     jp      z, lv789
   0214 3A 00 00      [13]  216     ld      a, (level)
   0217 FE 19         [ 7]  217     cp      #25
ASxxxx Assembler V02.00 + NoICE + SDCC mods  (Zilog Z80 / Hitachi HD64180), page 69.
Hexadecimal [16-Bits]



   0219 CA 9C 02      [10]  218     jp      z, lv789
   021C 3A 00 00      [13]  219     ld      a, (level)
   021F FE 1A         [ 7]  220     cp      #26
   0221 CA 9C 02      [10]  221     jp      z, lv789
   0224 3A 00 00      [13]  222     ld      a, (level)
   0227 FE 1B         [ 7]  223     cp      #27
   0229 CA 9C 02      [10]  224     jp      z, lv789
   022C 3A 00 00      [13]  225     ld      a, (level)
   022F FE 1C         [ 7]  226     cp      #28
   0231 CA 9C 02      [10]  227     jp      z, lv789
   0234 3A 00 00      [13]  228     ld      a, (level)
   0237 FE 1D         [ 7]  229     cp      #29
   0239 CA 9C 02      [10]  230     jp      z, lv789
   023C 3A 00 00      [13]  231     ld      a, (level)
   023F FE 1E         [ 7]  232     cp      #30
   0241 CA 9C 02      [10]  233     jp      z, lv789
                            234 
   0244                     235 lv123:
   0244 DD 7E 06      [19]  236     ld      a, h_color(ix)
   0247 FE 01         [ 7]  237     cp      #01
   0249 28 02         [12]  238     jr      z, bluee
   024B 20 06         [12]  239     jr      nz, wave
                            240 
   024D                     241 bluee:
   024D 21 00 00      [10]  242     ld      hl, #_obstacle_sp_0
   0250 C3 46 01      [10]  243     jp      dibujar
                            244 
   0253                     245 wave:
   0253 DD 7E 01      [19]  246     ld      a, h_y(ix)
   0256 FE 76         [ 7]  247     cp      #0x76
   0258 28 02         [12]  248     jr      z, waveup
   025A 20 06         [12]  249     jr      nz, wavedown
                            250 
   025C                     251 waveup:
   025C 21 00 00      [10]  252     ld      hl, #_wave_sp_0
   025F C3 46 01      [10]  253     jp      dibujar
                            254 
   0262                     255 wavedown:
   0262 21 00 00      [10]  256     ld      hl, #_wave_sp_1
   0265 C3 46 01      [10]  257     jp      dibujar
                            258 
   0268                     259 lv456:
   0268 DD 7E 06      [19]  260     ld      a, h_color(ix)
   026B FE 01         [ 7]  261     cp      #01
   026D 28 02         [12]  262     jr      z, green
   026F 20 06         [12]  263     jr      nz, ghost
                            264 
   0271                     265 green:
   0271 21 00 00      [10]  266     ld      hl, #_obstacle_sp_1
   0274 C3 46 01      [10]  267     jp      dibujar
                            268 
   0277                     269 ghost:
   0277 3A 00 00      [13]  270     ld      a, (animation_seconds)
   027A FE 00         [ 7]  271     cp      #00
   027C 28 12         [12]  272     jr      z, ghost1
ASxxxx Assembler V02.00 + NoICE + SDCC mods  (Zilog Z80 / Hitachi HD64180), page 70.
Hexadecimal [16-Bits]



   027E FE 02         [ 7]  273     cp      #02
   0280 28 0E         [12]  274     jr      z, ghost1    
   0282 FE 04         [ 7]  275     cp      #04
   0284 28 0A         [12]  276     jr      z, ghost1    
   0286 FE 06         [ 7]  277     cp      #06
   0288 28 06         [12]  278     jr      z, ghost1    
   028A FE 08         [ 7]  279     cp      #08
   028C 28 02         [12]  280     jr      z, ghost1    
   028E 20 06         [12]  281     jr      nz, ghost2
                            282     
   0290                     283     ghost1:
   0290 21 00 00      [10]  284         ld      hl, #_ghost_sp_0
   0293 C3 46 01      [10]  285         jp      dibujar
                            286 
   0296                     287     ghost2:
   0296 21 00 00      [10]  288         ld      hl, #_ghost_sp_1
   0299 C3 46 01      [10]  289         jp      dibujar
                            290 
   029C                     291 lv789:
   029C DD 7E 06      [19]  292     ld      a, h_color(ix)
   029F FE 01         [ 7]  293     cp      #01
   02A1 28 10         [12]  294     jr      z, fireball
                            295 
   02A3 DD 7E 06      [19]  296     ld      a, h_color(ix)
   02A6 FE 02         [ 7]  297     cp      #02
   02A8 28 0F         [12]  298     jr      z, bigfire
                            299 
   02AA DD 7E 06      [19]  300     ld      a, h_color(ix)
   02AD FE 03         [ 7]  301     cp      #03
   02AF 28 2D         [12]  302     jr      z, salicornio
   02B1 20 50         [12]  303     jr      nz, sandwave
                            304 
   02B3                     305 fireball: 
   02B3 21 00 00      [10]  306     ld      hl, #_fireball_sp_0
   02B6 C3 46 01      [10]  307     jp      dibujar
                            308 
   02B9                     309 bigfire:
   02B9 3A 00 00      [13]  310     ld      a, (animation_seconds)
   02BC FE 00         [ 7]  311     cp      #00
   02BE 28 12         [12]  312     jr      z, bigfire1
   02C0 FE 02         [ 7]  313     cp      #02
   02C2 28 0E         [12]  314     jr      z, bigfire1    
   02C4 FE 04         [ 7]  315     cp      #04
   02C6 28 0A         [12]  316     jr      z, bigfire1
   02C8 FE 06         [ 7]  317     cp      #06
   02CA 28 06         [12]  318     jr      z, bigfire1
   02CC FE 08         [ 7]  319     cp      #08
   02CE 28 02         [12]  320     jr      z, bigfire1
   02D0 20 06         [12]  321     jr      nz, bigfire2
                            322 
   02D2                     323 bigfire1:
   02D2 21 00 00      [10]  324     ld      hl, #_bigfire_sp_0
   02D5 C3 46 01      [10]  325     jp      dibujar
                            326 
   02D8                     327 bigfire2:
ASxxxx Assembler V02.00 + NoICE + SDCC mods  (Zilog Z80 / Hitachi HD64180), page 71.
Hexadecimal [16-Bits]



   02D8 21 00 00      [10]  328     ld      hl, #_bigfire_sp_1
   02DB C3 46 01      [10]  329     jp      dibujar
                            330 
   02DE                     331 salicornio:
   02DE 3A 00 00      [13]  332     ld      a, (animation_seconds)
   02E1 FE 00         [ 7]  333     cp      #00
   02E3 28 12         [12]  334     jr      z, salicornio1
   02E5 FE 02         [ 7]  335     cp      #02
   02E7 28 0E         [12]  336     jr      z, salicornio1    
   02E9 FE 04         [ 7]  337     cp      #04
   02EB 28 0A         [12]  338     jr      z, salicornio1
   02ED FE 06         [ 7]  339     cp      #06
   02EF 28 06         [12]  340     jr      z, salicornio1
   02F1 FE 08         [ 7]  341     cp      #08
   02F3 28 02         [12]  342     jr      z, salicornio1
   02F5 20 06         [12]  343     jr      nz, salicornio2
                            344 
   02F7                     345 salicornio1:
   02F7 21 00 00      [10]  346     ld      hl, #_salicornio_sp_0
   02FA C3 46 01      [10]  347     jp      dibujar
                            348 
   02FD                     349 salicornio2:
   02FD 21 00 00      [10]  350     ld      hl, #_salicornio_sp_1
   0300 C3 46 01      [10]  351     jp      dibujar
                            352 
   0303                     353 sandwave:
   0303 DD 7E 01      [19]  354     ld      a, h_y(ix)
   0306 FE 76         [ 7]  355     cp      #0x76
   0308 28 02         [12]  356     jr      z, sandwaveup
   030A 20 06         [12]  357     jr      nz, sandwavedown
                            358 
   030C                     359 sandwaveup:
   030C 21 00 00      [10]  360     ld      hl, #_wave_sp_4
   030F C3 46 01      [10]  361     jp      dibujar
                            362 
   0312                     363 sandwavedown:
   0312 21 00 00      [10]  364     ld      hl, #_wave_sp_5
   0315 C3 46 01      [10]  365     jp      dibujar
                            366 
   0318 C9            [10]  367 ret
                            368 
                            369 ;;;;;;;;;;;;;;;;;;;;;;;;;;;;;;;;;;;;;;;;;;;;;;;;;;;;;;;;;;;;;;;;;;;;;;;;;;;;;;;;;;;;;;;;;;;;
                            370 ;;
                            371 ;;  BORRAMOS ENEMIGOS, DEPENDIENDO DEL ENEMIGO HACE UN CLEAR U OTRO
                            372 ;;  DESTROYED REGISTER VALUES -> HL, DE, BC, AF
                            373 ;; 
                            374 ;;;;;;;;;;;;;;;;;;;;;;;;;;;;;;;;;;;;;;;;;;;;;;;;;;;;;;;;;;;;;;;;;;;;;;;;;;;;;;;;;;;;;;;;;;;
   0319                     375 sys_render_clear_obstacle::
   0319 DD 7E 06      [19]  376     ld      a, h_color(ix)
   031C FE 01         [ 7]  377     cp      #01
   031E 28 15         [12]  378     jr      z, tipo1
                            379 
   0320 DD 7E 06      [19]  380     ld      a, h_color(ix)
   0323 FE 02         [ 7]  381     cp      #02
   0325 28 14         [12]  382     jr      z, tipo2
ASxxxx Assembler V02.00 + NoICE + SDCC mods  (Zilog Z80 / Hitachi HD64180), page 72.
Hexadecimal [16-Bits]



                            383 
   0327 DD 7E 06      [19]  384     ld      a, h_color(ix)
   032A FE 03         [ 7]  385     cp      #03
   032C 28 13         [12]  386     jr      z, tipo3
                            387 
   032E DD 7E 06      [19]  388     ld      a, h_color(ix)
   0331 FE 04         [ 7]  389     cp      #04
   0333 28 12         [12]  390     jr      z, tipo4    
                            391     
   0335                     392 tipo1:
   0335 21 00 00      [10]  393     ld      hl, #_fireball_sp_1
   0338 C3 46 01      [10]  394     jp      dibujar
                            395 
   033B                     396 tipo2:
   033B 21 00 00      [10]  397     ld      hl, #_bigfire_sp_2
   033E C3 46 01      [10]  398     jp      dibujar
                            399 
   0341                     400 tipo3:
   0341 21 00 00      [10]  401     ld      hl, #_hero_sp_08
   0344 C3 46 01      [10]  402     jp      dibujar
                            403 
   0347                     404 tipo4:
   0347 21 00 00      [10]  405     ld      hl, #_wave_sp_2
   034A C3 46 01      [10]  406     jp      dibujar
                            407 
   034D C9            [10]  408 ret
                            409 
                            410 ;;;;;;;;;;;;;;;;;;;;;;;;;;;;;;;;;;;;;;;;;;;;;;;;;;;;;;;;;;;;;;;;;;;;;;;;;;;;;;;;;;;;;;;;;;;;
                            411 ;;
                            412 ;;  PINTAMOS EL SPRITE QUE NOS PASEN EN EL REGISTRO HL
                            413 ;;  DESTROYED REGISTER VALUES -> IX, HL, DE, BC, AF
                            414 ;;  INPUT -> HL (Apunta al sprite a dibujar)
                            415 ;;;;;;;;;;;;;;;;;;;;;;;;;;;;;;;;;;;;;;;;;;;;;;;;;;;;;;;;;;;;;;;;;;;;;;;;;;;;;;;;;;;;;;;;;;;
   034E                     416 sys_render_draw::
   034E DD 7E 02      [19]  417     ld  a, h_w(ix)
   0351 FE 00         [ 7]  418     cp  #00
   0353 C8            [11]  419     ret z
                            420 
   0354 E5            [11]  421     push    hl
   0355 11 00 C0      [10]  422     ld      de,     #CPCT_VMEM_START_ASM
   0358 DD 4E 00      [19]  423     ld      c,      h_x(ix)
   035B DD 46 01      [19]  424     ld      b,      h_y(ix)
   035E CD 00 00      [17]  425     call cpct_getScreenPtr_asm
   0361 EB            [ 4]  426     ex      de,     hl 
   0362 E1            [10]  427     pop hl
                            428     
   0363 DD 7E 06      [19]  429     ld      a, h_color(ix)      ;;Es mentira, es el tipo jej
   0366 FE 01         [ 7]  430     cp      #01
   0368 28 10         [12]  431     jr z, small
   036A DD 7E 06      [19]  432     ld      a, h_color(ix)
   036D FE 02         [ 7]  433     cp      #02
   036F 28 21         [12]  434     jr z, big
   0371 DD 7E 06      [19]  435     ld      a, h_color(ix)
   0374 FE 03         [ 7]  436     cp      #03
   0376 28 0A         [12]  437     jr z, medium
ASxxxx Assembler V02.00 + NoICE + SDCC mods  (Zilog Z80 / Hitachi HD64180), page 73.
Hexadecimal [16-Bits]



   0378 20 10         [12]  438     jr nz, wavee
                            439 
   037A                     440 small:
   037A 0E 08         [ 7]  441     ld      c,      #8      ;;Width
   037C 06 0C         [ 7]  442     ld      b,      #12     ;;Height
   037E CD 00 00      [17]  443     call cpct_drawSprite_asm
   0381 C9            [10]  444     ret
   0382                     445 medium:
   0382 0E 08         [ 7]  446     ld      c,      #8      ;;Width
   0384 06 10         [ 7]  447     ld      b,      #16     ;;Height
   0386 CD 00 00      [17]  448     call cpct_drawSprite_asm
   0389 C9            [10]  449     ret
   038A                     450 wavee:
   038A 0E 10         [ 7]  451     ld      c,      #16     ;;Width
   038C 06 18         [ 7]  452     ld      b,      #24     ;;Height
   038E CD 00 00      [17]  453     call cpct_drawSprite_asm
   0391 C9            [10]  454     ret 
   0392                     455 big:
   0392 0E 08         [ 7]  456     ld      c,      #8      ;;Width
   0394 06 2C         [ 7]  457     ld      b,      #44     ;;Height
   0396 CD 00 00      [17]  458     call cpct_drawSprite_asm
   0399 C9            [10]  459 ret
                            460 
                            461 ;;;;;;;;;;;;;;;;;;;;;;;;;;;;;;;;;;;;;;;;;;;;;;;;;;;;;;;;;;;;;;;;;;;;;;;;;;;;;;;;;;;;;;;;;;;;
                            462 ;;
                            463 ;;  LIMPIAMOS LA PANTALLA PINTANDO DOS CAJAS NEGRAS GIGANTES
                            464 ;;  DESTROYED REGISTER VALUES -> AF, DE, BC, HL
                            465 ;;  INPUT -> HL (Apunta al sprite a dibujar)
                            466 ;;;;;;;;;;;;;;;;;;;;;;;;;;;;;;;;;;;;;;;;;;;;;;;;;;;;;;;;;;;;;;;;;;;;;;;;;;;;;;;;;;;;;;;;;;;
   039A                     467 sys_render_clear_screen::
   039A 11 00 C0      [10]  468     ld de, #0xC000
   039D 3E 00         [ 7]  469     ld a, #0x00
   039F 06 C8         [ 7]  470     ld b, #200
   03A1 0E 25         [ 7]  471     ld c, #0x25
   03A3 CD 00 00      [17]  472     call cpct_drawSolidBox_asm
                            473 
   03A6 11 25 C0      [10]  474     ld de, #0xC025
   03A9 3E 00         [ 7]  475     ld a, #0x00
   03AB 06 C8         [ 7]  476     ld b, #200
   03AD 0E 40         [ 7]  477     ld c, #0x40
   03AF CD 00 00      [17]  478     call cpct_drawSolidBox_asm
   03B2 C9            [10]  479 ret
                            480 
                            481 
                            482 ;;;;;;;;;;;;;;;;;;;;;;;;;;;;;;;;;;;;;;;;;;;;;;;;;;;;;;;;;;;;;;;;;;;;;;;;;;;;;;;;;;;;;;;;;;;;
                            483 ;;
                            484 ;;  ACTUALIZA LOS FONDOS
                            485 ;;  DESTROYED REGISTER VALUES -> DE, HL, AF, BC
                            486 ;;  INPUT -> HL (Apunta al sprite a dibujar)
                            487 ;;;;;;;;;;;;;;;;;;;;;;;;;;;;;;;;;;;;;;;;;;;;;;;;;;;;;;;;;;;;;;;;;;;;;;;;;;;;;;;;;;;;;;;;;;;
   03B3                     488 sys_render_update_bginit123::
   03B3 21 00 00      [10]  489     ld      hl, #_background_z_end
   03B6 11 FF FF      [10]  490     ld      de, #0xFFFF
   03B9 CD 00 00      [17]  491     call    cpct_zx7b_decrunch_s_asm
   03BC C9            [10]  492 ret
ASxxxx Assembler V02.00 + NoICE + SDCC mods  (Zilog Z80 / Hitachi HD64180), page 74.
Hexadecimal [16-Bits]



                            493 
   03BD                     494 sys_render_update_bginit456::
   03BD 21 00 00      [10]  495     ld      hl, #_background_hallow_z_end
   03C0 11 FF FF      [10]  496     ld      de, #0xFFFF
   03C3 CD 00 00      [17]  497     call    cpct_zx7b_decrunch_s_asm
   03C6 C9            [10]  498 ret
                            499 
   03C7                     500 sys_render_update_bginit789::
   03C7 21 00 00      [10]  501     ld      hl, #_background_prince_z_end
   03CA 11 FF FF      [10]  502     ld      de, #0xFFFF
   03CD CD 00 00      [17]  503     call    cpct_zx7b_decrunch_s_asm
   03D0 C9            [10]  504 ret
                            505 
   03D1                     506 sys_render_update_menu::
   03D1 21 00 00      [10]  507     ld      hl, #_menu_z_end
   03D4 11 FF FF      [10]  508     ld      de, #0xFFFF
   03D7 CD 00 00      [17]  509     call    cpct_zx7b_decrunch_s_asm
   03DA C9            [10]  510 ret
                            511 
   03DB                     512 sys_render_update_win::
   03DB 21 00 00      [10]  513     ld      hl, #_win_z_end
   03DE 11 FF FF      [10]  514     ld      de, #0xFFFF
   03E1 CD 00 00      [17]  515     call    cpct_zx7b_decrunch_s_asm
   03E4 C9            [10]  516 ret
                            517 
   03E5                     518 sys_render_clear_killed::
   03E5 C9            [10]  519 ret
                            520 
                            521 ;;;;;;;;;;;;;;;;;;;;;;;;;;;;;;;;;;;;;;;;;;;;;;;;;;;;;;;;;;;;;;;;;;;;;;;;;;;;;;;;;;;;;;;;;;;;
                            522 ;;
                            523 ;;  ACTUALIZA EL STRING DEL NIVEL
                            524 ;;  DESTROYED REGISTER VALUES -> DE, HL, AF, BC
                            525 ;;  
                            526 ;;;;;;;;;;;;;;;;;;;;;;;;;;;;;;;;;;;;;;;;;;;;;;;;;;;;;;;;;;;;;;;;;;;;;;;;;;;;;;;;;;;;;;;;;;;
   03E6                     527 sys_render_draw_stlvl1::
   03E6 21 06 0F      [10]  528     ld      hl, #0x0F06
   03E9 CD 00 00      [17]  529     call    cpct_setDrawCharM0_asm
   03EC 11 00 C0      [10]  530     ld      de, #0xC000
   03EF 0E 1B         [ 7]  531     ld       c, #0x1B
   03F1 06 00         [ 7]  532     ld       b, #0x00
   03F3 CD 00 00      [17]  533     call    cpct_getScreenPtr_asm
   03F6 FD 21 00 00   [14]  534     ld      iy, #str_lvl1
   03FA CD 00 00      [17]  535     call    cpct_drawStringM0_asm
   03FD C9            [10]  536 ret
                            537 
   03FE                     538 sys_render_draw_stlvl2::
   03FE 21 06 0F      [10]  539     ld      hl, #0x0F06
   0401 CD 00 00      [17]  540     call    cpct_setDrawCharM0_asm
   0404 11 00 C0      [10]  541     ld      de, #0xC000
   0407 0E 1B         [ 7]  542     ld       c, #0x1B
   0409 06 00         [ 7]  543     ld       b, #0x00
   040B CD 00 00      [17]  544     call    cpct_getScreenPtr_asm
   040E FD 21 08 00   [14]  545     ld      iy, #str_lvl2
   0412 CD 00 00      [17]  546     call    cpct_drawStringM0_asm
   0415 C9            [10]  547 ret
ASxxxx Assembler V02.00 + NoICE + SDCC mods  (Zilog Z80 / Hitachi HD64180), page 75.
Hexadecimal [16-Bits]



                            548 
   0416                     549 sys_render_draw_stlvl3::
   0416 21 06 0F      [10]  550     ld      hl, #0x0F06
   0419 CD 00 00      [17]  551     call    cpct_setDrawCharM0_asm
   041C 11 00 C0      [10]  552     ld      de, #0xC000
   041F 0E 1B         [ 7]  553     ld       c, #0x1B
   0421 06 00         [ 7]  554     ld       b, #0x00
   0423 CD 00 00      [17]  555     call    cpct_getScreenPtr_asm
   0426 FD 21 10 00   [14]  556     ld      iy, #str_lvl3
   042A CD 00 00      [17]  557     call    cpct_drawStringM0_asm
   042D C9            [10]  558 ret
                            559 
   042E                     560 sys_render_draw_stlvl4::
   042E 21 06 0F      [10]  561     ld      hl, #0x0F06
   0431 CD 00 00      [17]  562     call    cpct_setDrawCharM0_asm
   0434 11 00 C0      [10]  563     ld      de, #0xC000
   0437 0E 1B         [ 7]  564     ld       c, #0x1B
   0439 06 00         [ 7]  565     ld       b, #0x00
   043B CD 00 00      [17]  566     call    cpct_getScreenPtr_asm
   043E FD 21 18 00   [14]  567     ld      iy, #str_lvl4
   0442 CD 00 00      [17]  568     call    cpct_drawStringM0_asm
   0445 C9            [10]  569 ret
                            570 
   0446                     571 sys_render_draw_stlvl5::
   0446 21 06 0F      [10]  572     ld      hl, #0x0F06
   0449 CD 00 00      [17]  573     call    cpct_setDrawCharM0_asm
   044C 11 00 C0      [10]  574     ld      de, #0xC000
   044F 0E 1B         [ 7]  575     ld       c, #0x1B
   0451 06 00         [ 7]  576     ld       b, #0x00
   0453 CD 00 00      [17]  577     call    cpct_getScreenPtr_asm
   0456 FD 21 20 00   [14]  578     ld      iy, #str_lvl5
   045A CD 00 00      [17]  579     call    cpct_drawStringM0_asm
   045D C9            [10]  580 ret
                            581 
   045E                     582 sys_render_draw_stlvl6::
   045E 21 06 0F      [10]  583     ld      hl, #0x0F06
   0461 CD 00 00      [17]  584     call    cpct_setDrawCharM0_asm
   0464 11 00 C0      [10]  585     ld      de, #0xC000
   0467 0E 1B         [ 7]  586     ld       c, #0x1B
   0469 06 00         [ 7]  587     ld       b, #0x00
   046B CD 00 00      [17]  588     call    cpct_getScreenPtr_asm
   046E FD 21 28 00   [14]  589     ld      iy, #str_lvl6
   0472 CD 00 00      [17]  590     call    cpct_drawStringM0_asm
   0475 C9            [10]  591 ret
                            592 
   0476                     593 sys_render_draw_stlvl7::
   0476 21 06 0F      [10]  594     ld      hl, #0x0F06
   0479 CD 00 00      [17]  595     call    cpct_setDrawCharM0_asm
   047C 11 00 C0      [10]  596     ld      de, #0xC000
   047F 0E 1B         [ 7]  597     ld       c, #0x1B
   0481 06 00         [ 7]  598     ld       b, #0x00
   0483 CD 00 00      [17]  599     call    cpct_getScreenPtr_asm
   0486 FD 21 30 00   [14]  600     ld      iy, #str_lvl7
   048A CD 00 00      [17]  601     call    cpct_drawStringM0_asm
   048D C9            [10]  602 ret
ASxxxx Assembler V02.00 + NoICE + SDCC mods  (Zilog Z80 / Hitachi HD64180), page 76.
Hexadecimal [16-Bits]



                            603 
   048E                     604 sys_render_draw_stlvl8::
   048E 21 06 0F      [10]  605     ld      hl, #0x0F06
   0491 CD 00 00      [17]  606     call    cpct_setDrawCharM0_asm
   0494 11 00 C0      [10]  607     ld      de, #0xC000
   0497 0E 1B         [ 7]  608     ld       c, #0x1B
   0499 06 00         [ 7]  609     ld       b, #0x00
   049B CD 00 00      [17]  610     call    cpct_getScreenPtr_asm
   049E FD 21 38 00   [14]  611     ld      iy, #str_lvl8
   04A2 CD 00 00      [17]  612     call    cpct_drawStringM0_asm
   04A5 C9            [10]  613 ret
                            614 
   04A6                     615 sys_render_draw_stlvl9::
   04A6 21 06 0F      [10]  616     ld      hl, #0x0F06
   04A9 CD 00 00      [17]  617     call    cpct_setDrawCharM0_asm
   04AC 11 00 C0      [10]  618     ld      de, #0xC000
   04AF 0E 1B         [ 7]  619     ld       c, #0x1B
   04B1 06 00         [ 7]  620     ld       b, #0x00
   04B3 CD 00 00      [17]  621     call    cpct_getScreenPtr_asm
   04B6 FD 21 40 00   [14]  622     ld      iy, #str_lvl9
   04BA CD 00 00      [17]  623     call    cpct_drawStringM0_asm
   04BD C9            [10]  624 ret
                            625 
   04BE                     626 sys_render_draw_stlvl10::
   04BE 21 06 0F      [10]  627     ld      hl, #0x0F06
   04C1 CD 00 00      [17]  628     call    cpct_setDrawCharM0_asm
   04C4 11 00 C0      [10]  629     ld      de, #0xC000
   04C7 0E 1B         [ 7]  630     ld       c, #0x1B
   04C9 06 00         [ 7]  631     ld       b, #0x00
   04CB CD 00 00      [17]  632     call    cpct_getScreenPtr_asm
   04CE FD 21 48 00   [14]  633     ld      iy, #str_lvl10
   04D2 CD 00 00      [17]  634     call    cpct_drawStringM0_asm
   04D5 C9            [10]  635 ret
                            636 
   04D6                     637 sys_render_draw_stlvl11::
   04D6 21 0B 0F      [10]  638     ld      hl, #0x0F0B
   04D9 CD 00 00      [17]  639     call    cpct_setDrawCharM0_asm
   04DC 11 00 C0      [10]  640     ld      de, #0xC000
   04DF 0E 1B         [ 7]  641     ld       c, #0x1B
   04E1 06 00         [ 7]  642     ld       b, #0x00
   04E3 CD 00 00      [17]  643     call    cpct_getScreenPtr_asm
   04E6 FD 21 51 00   [14]  644     ld      iy, #str_lvl11
   04EA CD 00 00      [17]  645     call    cpct_drawStringM0_asm
   04ED C9            [10]  646 ret
                            647 
   04EE                     648 sys_render_draw_stlvl12::
   04EE 21 0B 0F      [10]  649     ld      hl, #0x0F0B
   04F1 CD 00 00      [17]  650     call    cpct_setDrawCharM0_asm
   04F4 11 00 C0      [10]  651     ld      de, #0xC000
   04F7 0E 1B         [ 7]  652     ld       c, #0x1B
   04F9 06 00         [ 7]  653     ld       b, #0x00
   04FB CD 00 00      [17]  654     call    cpct_getScreenPtr_asm
   04FE FD 21 5A 00   [14]  655     ld      iy, #str_lvl12
   0502 CD 00 00      [17]  656     call    cpct_drawStringM0_asm
   0505 C9            [10]  657 ret
ASxxxx Assembler V02.00 + NoICE + SDCC mods  (Zilog Z80 / Hitachi HD64180), page 77.
Hexadecimal [16-Bits]



                            658 
   0506                     659 sys_render_draw_stlvl13::
   0506 21 0B 0F      [10]  660     ld      hl, #0x0F0B
   0509 CD 00 00      [17]  661     call    cpct_setDrawCharM0_asm
   050C 11 00 C0      [10]  662     ld      de, #0xC000
   050F 0E 1B         [ 7]  663     ld       c, #0x1B
   0511 06 00         [ 7]  664     ld       b, #0x00
   0513 CD 00 00      [17]  665     call    cpct_getScreenPtr_asm
   0516 FD 21 63 00   [14]  666     ld      iy, #str_lvl13
   051A CD 00 00      [17]  667     call    cpct_drawStringM0_asm
   051D C9            [10]  668 ret
                            669 
   051E                     670 sys_render_draw_stlvl14::
   051E 21 0B 0F      [10]  671     ld      hl, #0x0F0B
   0521 CD 00 00      [17]  672     call    cpct_setDrawCharM0_asm
   0524 11 00 C0      [10]  673     ld      de, #0xC000
   0527 0E 1B         [ 7]  674     ld       c, #0x1B
   0529 06 00         [ 7]  675     ld       b, #0x00
   052B CD 00 00      [17]  676     call    cpct_getScreenPtr_asm
   052E FD 21 6C 00   [14]  677     ld      iy, #str_lvl14
   0532 CD 00 00      [17]  678     call    cpct_drawStringM0_asm
   0535 C9            [10]  679 ret
                            680 
   0536                     681 sys_render_draw_stlvl15::
   0536 21 0B 0F      [10]  682     ld      hl, #0x0F0B
   0539 CD 00 00      [17]  683     call    cpct_setDrawCharM0_asm
   053C 11 00 C0      [10]  684     ld      de, #0xC000
   053F 0E 1B         [ 7]  685     ld       c, #0x1B
   0541 06 00         [ 7]  686     ld       b, #0x00
   0543 CD 00 00      [17]  687     call    cpct_getScreenPtr_asm
   0546 FD 21 75 00   [14]  688     ld      iy, #str_lvl15
   054A CD 00 00      [17]  689     call    cpct_drawStringM0_asm
   054D C9            [10]  690 ret
                            691 
   054E                     692 sys_render_draw_stlvl16::
   054E 21 0B 0F      [10]  693     ld      hl, #0x0F0B
   0551 CD 00 00      [17]  694     call    cpct_setDrawCharM0_asm
   0554 11 00 C0      [10]  695     ld      de, #0xC000
   0557 0E 1B         [ 7]  696     ld       c, #0x1B
   0559 06 00         [ 7]  697     ld       b, #0x00
   055B CD 00 00      [17]  698     call    cpct_getScreenPtr_asm
   055E FD 21 7E 00   [14]  699     ld      iy, #str_lvl16
   0562 CD 00 00      [17]  700     call    cpct_drawStringM0_asm
   0565 C9            [10]  701 ret
                            702 
   0566                     703 sys_render_draw_stlvl17::
   0566 21 0B 0F      [10]  704     ld      hl, #0x0F0B
   0569 CD 00 00      [17]  705     call    cpct_setDrawCharM0_asm
   056C 11 00 C0      [10]  706     ld      de, #0xC000
   056F 0E 1B         [ 7]  707     ld       c, #0x1B
   0571 06 00         [ 7]  708     ld       b, #0x00
   0573 CD 00 00      [17]  709     call    cpct_getScreenPtr_asm
   0576 FD 21 87 00   [14]  710     ld      iy, #str_lvl17
   057A CD 00 00      [17]  711     call    cpct_drawStringM0_asm
   057D C9            [10]  712 ret
ASxxxx Assembler V02.00 + NoICE + SDCC mods  (Zilog Z80 / Hitachi HD64180), page 78.
Hexadecimal [16-Bits]



                            713 
   057E                     714 sys_render_draw_stlvl18::
   057E 21 0B 0F      [10]  715     ld      hl, #0x0F0B
   0581 CD 00 00      [17]  716     call    cpct_setDrawCharM0_asm
   0584 11 00 C0      [10]  717     ld      de, #0xC000
   0587 0E 1B         [ 7]  718     ld       c, #0x1B
   0589 06 00         [ 7]  719     ld       b, #0x00
   058B CD 00 00      [17]  720     call    cpct_getScreenPtr_asm
   058E FD 21 90 00   [14]  721     ld      iy, #str_lvl18
   0592 CD 00 00      [17]  722     call    cpct_drawStringM0_asm
   0595 C9            [10]  723 ret
                            724 
   0596                     725 sys_render_draw_stlvl19::
   0596 21 0B 0F      [10]  726     ld      hl, #0x0F0B
   0599 CD 00 00      [17]  727     call    cpct_setDrawCharM0_asm
   059C 11 00 C0      [10]  728     ld      de, #0xC000
   059F 0E 1B         [ 7]  729     ld       c, #0x1B
   05A1 06 00         [ 7]  730     ld       b, #0x00
   05A3 CD 00 00      [17]  731     call    cpct_getScreenPtr_asm
   05A6 FD 21 99 00   [14]  732     ld      iy, #str_lvl19
   05AA CD 00 00      [17]  733     call    cpct_drawStringM0_asm
   05AD C9            [10]  734 ret
                            735 
   05AE                     736 sys_render_draw_stlvl20::
   05AE 21 0B 0F      [10]  737     ld      hl, #0x0F0B
   05B1 CD 00 00      [17]  738     call    cpct_setDrawCharM0_asm
   05B4 11 00 C0      [10]  739     ld      de, #0xC000
   05B7 0E 1B         [ 7]  740     ld       c, #0x1B
   05B9 06 00         [ 7]  741     ld       b, #0x00
   05BB CD 00 00      [17]  742     call    cpct_getScreenPtr_asm
   05BE FD 21 A2 00   [14]  743     ld      iy, #str_lvl20
   05C2 CD 00 00      [17]  744     call    cpct_drawStringM0_asm
   05C5 C9            [10]  745 ret
                            746 
   05C6                     747 sys_render_draw_stlvl21::
   05C6 21 04 0F      [10]  748     ld      hl, #0x0F04
   05C9 CD 00 00      [17]  749     call    cpct_setDrawCharM0_asm
   05CC 11 00 C0      [10]  750     ld      de, #0xC000
   05CF 0E 1B         [ 7]  751     ld       c, #0x1B
   05D1 06 00         [ 7]  752     ld       b, #0x00
   05D3 CD 00 00      [17]  753     call    cpct_getScreenPtr_asm
   05D6 FD 21 AB 00   [14]  754     ld      iy, #str_lvl21
   05DA CD 00 00      [17]  755     call    cpct_drawStringM0_asm
   05DD C9            [10]  756 ret
                            757 
   05DE                     758 sys_render_draw_stlvl22::
   05DE 21 04 0F      [10]  759     ld      hl, #0x0F04
   05E1 CD 00 00      [17]  760     call    cpct_setDrawCharM0_asm
   05E4 11 00 C0      [10]  761     ld      de, #0xC000
   05E7 0E 1B         [ 7]  762     ld       c, #0x1B
   05E9 06 00         [ 7]  763     ld       b, #0x00
   05EB CD 00 00      [17]  764     call    cpct_getScreenPtr_asm
   05EE FD 21 B4 00   [14]  765     ld      iy, #str_lvl22
   05F2 CD 00 00      [17]  766     call    cpct_drawStringM0_asm
   05F5 C9            [10]  767 ret
ASxxxx Assembler V02.00 + NoICE + SDCC mods  (Zilog Z80 / Hitachi HD64180), page 79.
Hexadecimal [16-Bits]



                            768 
   05F6                     769 sys_render_draw_stlvl23::
   05F6 21 04 0F      [10]  770     ld      hl, #0x0F04
   05F9 CD 00 00      [17]  771     call    cpct_setDrawCharM0_asm
   05FC 11 00 C0      [10]  772     ld      de, #0xC000
   05FF 0E 1B         [ 7]  773     ld       c, #0x1B
   0601 06 00         [ 7]  774     ld       b, #0x00
   0603 CD 00 00      [17]  775     call    cpct_getScreenPtr_asm
   0606 FD 21 BD 00   [14]  776     ld      iy, #str_lvl23
   060A CD 00 00      [17]  777     call    cpct_drawStringM0_asm
   060D C9            [10]  778 ret
                            779 
   060E                     780 sys_render_draw_stlvl24::
   060E 21 04 0F      [10]  781     ld      hl, #0x0F04
   0611 CD 00 00      [17]  782     call    cpct_setDrawCharM0_asm
   0614 11 00 C0      [10]  783     ld      de, #0xC000
   0617 0E 1B         [ 7]  784     ld       c, #0x1B
   0619 06 00         [ 7]  785     ld       b, #0x00
   061B CD 00 00      [17]  786     call    cpct_getScreenPtr_asm
   061E FD 21 C6 00   [14]  787     ld      iy, #str_lvl24
   0622 CD 00 00      [17]  788     call    cpct_drawStringM0_asm
   0625 C9            [10]  789 ret
                            790 
   0626                     791 sys_render_draw_stlvl25::
   0626 21 04 0F      [10]  792     ld      hl, #0x0F04
   0629 CD 00 00      [17]  793     call    cpct_setDrawCharM0_asm
   062C 11 00 C0      [10]  794     ld      de, #0xC000
   062F 0E 1B         [ 7]  795     ld       c, #0x1B
   0631 06 00         [ 7]  796     ld       b, #0x00
   0633 CD 00 00      [17]  797     call    cpct_getScreenPtr_asm
   0636 FD 21 CF 00   [14]  798     ld      iy, #str_lvl25
   063A CD 00 00      [17]  799     call    cpct_drawStringM0_asm
   063D C9            [10]  800 ret
                            801 
   063E                     802 sys_render_draw_stlvl26::
   063E 21 04 0F      [10]  803     ld      hl, #0x0F04
   0641 CD 00 00      [17]  804     call    cpct_setDrawCharM0_asm
   0644 11 00 C0      [10]  805     ld      de, #0xC000
   0647 0E 1B         [ 7]  806     ld       c, #0x1B
   0649 06 00         [ 7]  807     ld       b, #0x00
   064B CD 00 00      [17]  808     call    cpct_getScreenPtr_asm
   064E FD 21 D8 00   [14]  809     ld      iy, #str_lvl26
   0652 CD 00 00      [17]  810     call    cpct_drawStringM0_asm
   0655 C9            [10]  811 ret
                            812 
   0656                     813 sys_render_draw_stlvl27::
   0656 21 04 0F      [10]  814     ld      hl, #0x0F04
   0659 CD 00 00      [17]  815     call    cpct_setDrawCharM0_asm
   065C 11 00 C0      [10]  816     ld      de, #0xC000
   065F 0E 1B         [ 7]  817     ld       c, #0x1B
   0661 06 00         [ 7]  818     ld       b, #0x00
   0663 CD 00 00      [17]  819     call    cpct_getScreenPtr_asm
   0666 FD 21 E1 00   [14]  820     ld      iy, #str_lvl27
   066A CD 00 00      [17]  821     call    cpct_drawStringM0_asm
   066D C9            [10]  822 ret
ASxxxx Assembler V02.00 + NoICE + SDCC mods  (Zilog Z80 / Hitachi HD64180), page 80.
Hexadecimal [16-Bits]



                            823 
   066E                     824 sys_render_draw_stlvl28::
   066E 21 04 0F      [10]  825     ld      hl, #0x0F04
   0671 CD 00 00      [17]  826     call    cpct_setDrawCharM0_asm
   0674 11 00 C0      [10]  827     ld      de, #0xC000
   0677 0E 1B         [ 7]  828     ld       c, #0x1B
   0679 06 00         [ 7]  829     ld       b, #0x00
   067B CD 00 00      [17]  830     call    cpct_getScreenPtr_asm
   067E FD 21 EA 00   [14]  831     ld      iy, #str_lvl28
   0682 CD 00 00      [17]  832     call    cpct_drawStringM0_asm
   0685 C9            [10]  833 ret
                            834 
   0686                     835 sys_render_draw_stlvl29::
   0686 21 04 0F      [10]  836     ld      hl, #0x0F04
   0689 CD 00 00      [17]  837     call    cpct_setDrawCharM0_asm
   068C 11 00 C0      [10]  838     ld      de, #0xC000
   068F 0E 1B         [ 7]  839     ld       c, #0x1B
   0691 06 00         [ 7]  840     ld       b, #0x00
   0693 CD 00 00      [17]  841     call    cpct_getScreenPtr_asm
   0696 FD 21 F3 00   [14]  842     ld      iy, #str_lvl29
   069A CD 00 00      [17]  843     call    cpct_drawStringM0_asm
   069D C9            [10]  844 ret
                            845 
   069E                     846 sys_render_draw_stlvl30::
   069E 21 04 0F      [10]  847     ld      hl, #0x0F04
   06A1 CD 00 00      [17]  848     call    cpct_setDrawCharM0_asm
   06A4 11 00 C0      [10]  849     ld      de, #0xC000
   06A7 0E 1B         [ 7]  850     ld       c, #0x1B
   06A9 06 00         [ 7]  851     ld       b, #0x00
   06AB CD 00 00      [17]  852     call    cpct_getScreenPtr_asm
   06AE FD 21 FC 00   [14]  853     ld      iy, #str_lvl30
   06B2 CD 00 00      [17]  854     call    cpct_drawStringM0_asm
   06B5 C9            [10]  855 ret
